(dp1
S'OriginalConfig'
p2
ccopy_reg
_reconstructor
p3
(cWMCore.Configuration
Configuration
p4
c__builtin__
object
p5
NtRp6
(dp7
S'Site'
p8
g3
(cWMCore.Configuration
ConfigSection
p9
g5
NtRp10
(dp11
S'_internal_skipChecks'
p12
I00
sS'_internal_documentation'
p13
S''
sS'_internal_settings'
p14
c__builtin__
set
p15
((lp16
S'storageSite'
p17
atRp18
sS'_internal_name'
p19
g8
sS'_internal_docstrings'
p20
(dp21
sS'_internal_children'
p22
g15
((ltRp23
sg17
S'T2_IN_TIFR'
p24
sS'_internal_parent_ref'
p25
NsbsS'_internal_sections'
p26
(lp27
S'General'
p28
aS'JobType'
p29
aS'Data'
p30
ag8
aS'User'
p31
aS'Debug'
p32
asg28
g3
(g9
g5
NtRp33
(dp34
S'workArea'
p35
S'CrabData_20191101'
p36
sg12
I00
sg13
S''
sg14
g15
((lp37
g35
aS'transferOutputs'
p38
aS'transferLogs'
p39
aS'requestName'
p40
atRp41
sg19
g28
sg20
(dp42
sg38
I01
sg22
g15
((ltRp43
sg40
S'EleRunBver2v2_Data_20191101'
p44
sg25
Nsg39
I00
sbsS'_internal_webapps'
p45
(lp46
sg31
g3
(g9
g5
NtRp47
(dp48
g12
I00
sg13
S''
sg14
g15
((ltRp49
sg19
g31
sg20
(dp50
sg22
g15
((ltRp51
sg25
NsbsS'_internal_components'
p52
(lp53
sg32
g3
(g9
g5
NtRp54
(dp55
g12
I00
sg13
S''
sg14
g15
((ltRp56
sg19
g32
sg20
(dp57
sg22
g15
((ltRp58
sg25
Nsbsg30
g3
(g9
g5
NtRp59
(dp60
S'inputDataset'
p61
S'/SingleElectron/Run2017B-31Mar2018-v1/MINIAOD'
p62
sS'allowNonValidInputDataset'
p63
I01
sg12
I00
sS'splitting'
p64
S'LumiBased'
p65
sS'unitsPerJob'
p66
I500
sg13
S''
sg14
g15
((lp67
g61
ag63
ag66
aS'inputDBS'
p68
ag64
aS'outputDatasetTag'
p69
aS'outLFNDirBase'
p70
aS'lumiMask'
p71
atRp72
sg19
g30
sg68
S'global'
p73
sg20
(dp74
sg69
g44
sg22
g15
((ltRp75
sg70
S'/store/user/sthakur/ntuple_for2017Data_20191101/Data_20191101/EleRunBver2v2_Data_20191101'
p76
sg25
Nsg71
S'https://cms-service-dqm.web.cern.ch/cms-service-dqm/CAF/certification/Collisions17/13TeV/ReReco/Cert_294927-306462_13TeV_EOY2017ReReco_Collisions17_JSON.txt'
p77
sbsg29
g3
(g9
g5
NtRp78
(dp79
g12
I00
sg13
S''
sg14
g15
((lp80
S'psetName'
p81
aS'pluginName'
p82
aS'inputFiles'
p83
aS'allowUndistributedCMSSW'
p84
aS'maxMemoryMB'
p85
atRp86
sg19
g29
sg20
(dp87
sg82
S'Analysis'
p88
sg22
g15
((ltRp89
sg84
I01
sg81
S'20191101/config/EleRunBver2v2_Data_20191101_cfg.py'
p90
sg25
Nsg83
(lp91
S'../../ExLep2017Tree/Selection/test/Fall17_V3_MC_PtResolution_AK8PF.txt'
p92
aS'../../ExLep2017Tree/Selection/test/Fall17_V3_MC_SF_AK8PF.txt'
p93
asg85
I2000
sbsbsS'voGroup'
p94
S''
sS'Server'
p95
S'cmsweb.cern.ch'
p96
sS'instance'
p97
S'prod'
p98
sS'RequestName'
p99
V191101_121930:sthakur_crab_EleRunBver2v2_Data_20191101
p100
sS'voRole'
p101
S'NULL'
p102
sS'Port'
p103
S''
s.