(dp1
S'OriginalConfig'
p2
ccopy_reg
_reconstructor
p3
(cWMCore.Configuration
Configuration
p4
c__builtin__
object
p5
NtRp6
(dp7
S'Site'
p8
g3
(cWMCore.Configuration
ConfigSection
p9
g5
NtRp10
(dp11
S'_internal_skipChecks'
p12
I00
sS'_internal_documentation'
p13
S''
sS'_internal_settings'
p14
c__builtin__
set
p15
((lp16
S'storageSite'
p17
atRp18
sS'_internal_name'
p19
g8
sS'_internal_docstrings'
p20
(dp21
sS'_internal_children'
p22
g15
((ltRp23
sg17
S'T2_IN_TIFR'
p24
sS'_internal_parent_ref'
p25
NsbsS'_internal_sections'
p26
(lp27
S'General'
p28
aS'JobType'
p29
aS'Data'
p30
ag8
aS'User'
p31
aS'Debug'
p32
asg28
g3
(g9
g5
NtRp33
(dp34
S'workArea'
p35
S'CrabMC_20191116'
p36
sg12
I00
sg13
S''
sg14
g15
((lp37
g35
aS'transferOutputs'
p38
aS'transferLogs'
p39
aS'requestName'
p40
atRp41
sg19
g28
sg20
(dp42
sg38
I01
sg22
g15
((ltRp43
sg40
S'ExLepEEZ_M2500_MC_20191116'
p44
sg25
Nsg39
I00
sbsS'_internal_webapps'
p45
(lp46
sg31
g3
(g9
g5
NtRp47
(dp48
g12
I00
sg13
S''
sg14
g15
((ltRp49
sg19
g31
sg20
(dp50
sg22
g15
((ltRp51
sg25
NsbsS'_internal_components'
p52
(lp53
sg32
g3
(g9
g5
NtRp54
(dp55
g12
I00
sg13
S''
sg14
g15
((ltRp56
sg19
g32
sg20
(dp57
sg22
g15
((ltRp58
sg25
Nsbsg30
g3
(g9
g5
NtRp59
(dp60
S'inputDataset'
p61
S'/ExcitedLepton_EEZ-2500_TuneCP5_13TeV-pythia8/RunIIFall17MiniAODv2-PU2017_12Apr2018_94X_mc2017_realistic_v14-v1/MINIAODSIM'
p62
sS'allowNonValidInputDataset'
p63
I01
sg12
I00
sS'splitting'
p64
S'FileBased'
p65
sS'unitsPerJob'
p66
I10
sg13
S''
sg14
g15
((lp67
g61
ag63
ag66
aS'inputDBS'
p68
ag64
aS'outputDatasetTag'
p69
aS'outLFNDirBase'
p70
atRp71
sg19
g30
sg68
S'global'
p72
sg20
(dp73
sg69
g44
sg22
g15
((ltRp74
sg70
S'/store/user/sthakur/ntuple_for2017MC_20191116/MC_20191116/ExLepEEZ_M2500_MC_20191116'
p75
sg25
Nsbsg29
g3
(g9
g5
NtRp76
(dp77
g12
I00
sg13
S''
sg14
g15
((lp78
S'psetName'
p79
aS'pluginName'
p80
aS'inputFiles'
p81
aS'allowUndistributedCMSSW'
p82
aS'maxMemoryMB'
p83
atRp84
sg19
g29
sg20
(dp85
sg80
S'Analysis'
p86
sg22
g15
((ltRp87
sg82
I01
sg79
S'20191116/config/ExLepEEZ_M2500_MC_20191116_cfg.py'
p88
sg25
Nsg81
(lp89
S'../../ExLep2017Tree/Selection/test/Fall17_V3_MC_PtResolution_AK8PF.txt'
p90
aS'../../ExLep2017Tree/Selection/test/Fall17_V3_MC_SF_AK8PF.txt'
p91
asg83
I2000
sbsbsS'voGroup'
p92
S''
sS'Server'
p93
S'cmsweb.cern.ch'
p94
sS'instance'
p95
S'prod'
p96
sS'RequestName'
p97
V191116_185031:sthakur_crab_ExLepEEZ_M2500_MC_20191116
p98
sS'voRole'
p99
S'NULL'
p100
sS'Port'
p101
S''
s.