ccopy_reg
_reconstructor
p0
(cFWCore.ParameterSet.Config
Process
p1
c__builtin__
object
p2
Ntp3
Rp4
(dp5
S'MessageLogger'
p6
g0
(cFWCore.ParameterSet.Modules
Service
p7
g2
Ntp8
Rp9
(dp10
S'_isFrozen'
p11
I00
sS'suppressInfo'
p12
g0
(cFWCore.ParameterSet.Types
vstring
p13
c__builtin__
list
p14
(lp15
tp16
Rp17
(dp18
g11
I00
sS'_ParameterTypeBase__isTracked'
p19
I00
sS'_isModified'
p20
I00
sS'_nPerLine'
p21
I1
sbsS'suppressDebug'
p22
g0
(g13
g14
(lp23
tp24
Rp25
(dp26
g11
I00
sg19
I00
sg20
I00
sg21
I1
sbsS'cout'
p27
g0
(cFWCore.ParameterSet.Types
PSet
p28
g2
Ntp29
Rp30
(dp31
g11
I00
sg19
I00
sS'placeholder'
p32
g0
(cFWCore.ParameterSet.Types
bool
p33
g2
Ntp34
Rp35
(dp36
g11
I00
sg19
I00
sS'_value'
p37
I01
sg20
I00
sbsg20
I00
sS'_Parameterizable__parameterNames'
p38
(lp39
g32
asbsS'_lineNumber'
p40
I11
sS'debugModules'
p41
g0
(g13
g14
(lp42
tp43
Rp44
(dp45
g11
I00
sg19
I00
sg20
I00
sg21
I1
sbsS'_TypedParameterizable__type'
p46
g6
sS'fwkJobReports'
p47
g0
(g13
g14
(lp48
S'FrameworkJobReport'
p49
atp50
Rp51
(dp52
g11
I00
sg19
I00
sg20
I00
sg21
I1
sbsg38
(lp53
g12
aS'debugs'
p54
ag22
ag27
aS'cerr_stats'
p55
aS'warnings'
p56
aS'default'
p57
aS'statistics'
p58
aS'cerr'
p59
ag49
aS'suppressWarning'
p60
aS'errors'
p61
aS'destinations'
p62
ag41
aS'infos'
p63
aS'categories'
p64
ag47
asg58
g0
(g13
g14
(lp65
g55
atp66
Rp67
(dp68
g11
I00
sg19
I00
sg20
I00
sg21
I1
sbsS'_filename'
p69
S'/cvmfs/cms.cern.ch/slc7_amd64_gcc700/cms/cmssw/CMSSW_10_4_0/python/FWCore/ParameterSet/Modules.py'
p70
sg62
g0
(g13
g14
(lp71
g56
ag61
ag63
ag54
ag27
ag59
atp72
Rp73
(dp74
g11
I00
sg19
I00
sg20
I00
sg21
I1
sbsg54
g0
(g28
g2
Ntp75
Rp76
(dp77
g11
I00
sg19
I00
sg32
g0
(g33
g2
Ntp78
Rp79
(dp80
g11
I00
sg19
I00
sg37
I01
sg20
I00
sbsg20
I00
sg38
(lp81
g32
asbsg56
g0
(g28
g2
Ntp82
Rp83
(dp84
g11
I00
sg19
I00
sg32
g0
(g33
g2
Ntp85
Rp86
(dp87
g11
I00
sg19
I00
sg37
I01
sg20
I00
sbsg20
I00
sg38
(lp88
g32
asbsg61
g0
(g28
g2
Ntp89
Rp90
(dp91
g11
I00
sg19
I00
sg32
g0
(g33
g2
Ntp92
Rp93
(dp94
g11
I00
sg19
I00
sg37
I01
sg20
I00
sbsg20
I00
sg38
(lp95
g32
asbsg49
g0
(g28
g2
Ntp96
Rp97
(dp98
g11
I00
sg19
I00
sg20
I00
sg57
g0
(g28
g2
Ntp99
Rp100
(dp101
g11
I00
sg19
I00
sS'limit'
p102
g0
(cFWCore.ParameterSet.Types
int32
p103
g2
Ntp104
Rp105
(dp106
g11
I00
sg19
I00
sg37
I0
sg20
I00
sbsg20
I00
sg38
(lp107
g102
asbsS'FwkJob'
p108
g0
(g28
g2
Ntp109
Rp110
(dp111
g11
I00
sg19
I00
sg20
I00
sg102
g0
(g103
g2
Ntp112
Rp113
(dp114
g11
I00
sg19
I00
sg37
I10000000
sg20
I00
sbsg38
(lp115
S'optionalPSet'
p116
ag102
asg116
g0
(g33
g2
Ntp117
Rp118
(dp119
g11
I00
sg19
I00
sg37
I01
sg20
I00
sbsbsg38
(lp120
g57
ag116
ag108
asg116
g0
(g33
g2
Ntp121
Rp122
(dp123
g11
I00
sg19
I00
sg37
I01
sg20
I00
sbsbsg60
g0
(g13
g14
(lp124
tp125
Rp126
(dp127
g11
I00
sg19
I00
sg20
I00
sg21
I1
sbsg63
g0
(g28
g2
Ntp128
Rp129
(dp130
g11
I00
sg19
I00
sg20
I00
sS'Root_NoDictionary'
p131
g0
(g28
g2
Ntp132
Rp133
(dp134
g11
I00
sg19
I00
sg20
I00
sg102
g0
(g103
g2
Ntp135
Rp136
(dp137
g11
I00
sg19
I00
sg37
I0
sg20
I00
sbsg38
(lp138
g116
ag102
asg116
g0
(g33
g2
Ntp139
Rp140
(dp141
g11
I00
sg19
I00
sg37
I01
sg20
I00
sbsbsg38
(lp142
g116
ag131
ag32
asg116
g0
(g33
g2
Ntp143
Rp144
(dp145
g11
I00
sg19
I00
sg37
I01
sg20
I00
sbsg32
g0
(g33
g2
Ntp146
Rp147
(dp148
g11
I00
sg19
I00
sg37
I01
sg20
I00
sbsbsg64
g0
(g13
g14
(lp149
g108
aS'FwkReport'
p150
aS'FwkSummary'
p151
ag131
atp152
Rp153
(dp154
g11
I00
sg19
I00
sg20
I00
sg21
I1
sbsg20
I00
sg55
g0
(g28
g2
Ntp155
Rp156
(dp157
g11
I00
sg19
I00
sg20
I00
sg116
g0
(g33
g2
Ntp158
Rp159
(dp160
g11
I00
sg19
I00
sg37
I01
sg20
I00
sbsg38
(lp161
S'threshold'
p162
aS'output'
p163
ag116
asg162
g0
(cFWCore.ParameterSet.Types
string
p164
g2
Ntp165
Rp166
(dp167
g11
I00
sg19
I00
sg37
S'WARNING'
p168
sg20
I00
sbsg163
g0
(g164
g2
Ntp169
Rp170
(dp171
g11
I00
sg19
I00
sg37
g59
sg20
I00
sbsbsg57
g0
(g28
g2
Ntp172
Rp173
(dp174
g11
I00
sg19
I00
sg20
I00
sg38
(lp175
sbsS'_inProcess'
p176
I01
sg59
g0
(g28
g2
Ntp177
Rp178
(dp179
g11
I00
sg19
I00
sS'noTimeStamps'
p180
g0
(g33
g2
Ntp181
Rp182
(dp183
g11
I00
sg19
I00
sg37
I00
sg20
I00
sbsg150
g0
(g28
g2
Ntp184
Rp185
(dp186
g11
I00
sg19
I00
sg20
I01
sS'reportEvery'
p187
g0
(g103
g2
Ntp188
Rp189
(dp190
g11
I00
sg19
I00
sg37
I100
sg20
I01
sbsg102
g0
(g103
g2
Ntp191
Rp192
(dp193
g11
I00
sg19
I00
sg37
I10000000
sg20
I00
sbsg38
(lp194
g187
ag116
ag102
asg116
g0
(g33
g2
Ntp195
Rp196
(dp197
g11
I00
sg19
I00
sg37
I01
sg20
I00
sbsbsg20
I00
sg57
g0
(g28
g2
Ntp198
Rp199
(dp200
g11
I00
sg19
I00
sg102
g0
(g103
g2
Ntp201
Rp202
(dp203
g11
I00
sg19
I00
sg37
I10000000
sg20
I00
sbsg20
I00
sg38
(lp204
g102
asbsg131
g0
(g28
g2
Ntp205
Rp206
(dp207
g11
I00
sg19
I00
sg20
I00
sg102
g0
(g103
g2
Ntp208
Rp209
(dp210
g11
I00
sg19
I00
sg37
I0
sg20
I00
sbsg38
(lp211
g116
ag102
asg116
g0
(g33
g2
Ntp212
Rp213
(dp214
g11
I00
sg19
I00
sg37
I01
sg20
I00
sbsbsS'INFO'
p215
g0
(g28
g2
Ntp216
Rp217
(dp218
g11
I00
sg19
I00
sg102
g0
(g103
g2
Ntp219
Rp220
(dp221
g11
I00
sg19
I00
sg37
I0
sg20
I00
sbsg20
I00
sg38
(lp222
g102
asbsg116
g0
(g33
g2
Ntp223
Rp224
(dp225
g11
I00
sg19
I00
sg37
I01
sg20
I00
sbsg108
g0
(g28
g2
Ntp226
Rp227
(dp228
g11
I00
sg19
I00
sg20
I00
sg102
g0
(g103
g2
Ntp229
Rp230
(dp231
g11
I00
sg19
I00
sg37
I0
sg20
I00
sbsg38
(lp232
g116
ag102
asg116
g0
(g33
g2
Ntp233
Rp234
(dp235
g11
I00
sg19
I00
sg37
I01
sg20
I00
sbsbsg151
g0
(g28
g2
Ntp236
Rp237
(dp238
g11
I00
sg19
I00
sg20
I00
sg187
g0
(g103
g2
Ntp239
Rp240
(dp241
g11
I00
sg19
I00
sg37
I1
sg20
I00
sbsg102
g0
(g103
g2
Ntp242
Rp243
(dp244
g11
I00
sg19
I00
sg37
I10000000
sg20
I00
sbsg38
(lp245
g187
ag116
ag102
asg116
g0
(g33
g2
Ntp246
Rp247
(dp248
g11
I00
sg19
I00
sg37
I01
sg20
I00
sbsbsg38
(lp249
g215
ag180
ag150
ag57
ag131
ag162
ag108
ag151
ag116
asg162
g0
(g164
g2
Ntp250
Rp251
(dp252
g11
I00
sg19
I00
sg37
g215
sg20
I00
sbsbsbsS'BaseMCTruthSet'
p253
g0
(g28
g2
Ntp254
Rp255
(dp256
g11
I00
sg19
I01
sg20
I01
sS'isData'
p257
g0
(g33
g2
Ntp258
Rp259
(dp260
g11
I00
sg19
I01
sg37
I01
sg20
I00
sbsS'sampleCode'
p261
g0
(g164
g2
Ntp262
Rp263
(dp264
g11
I00
sg19
I01
sg37
S'DATA'
p265
sg20
I00
sbsg38
(lp266
g257
ag261
asS'_Labelable__label'
p267
g253
sbsS'_Process__sequences'
p268
(dp269
S'metFilterSequence'
p270
g0
(cFWCore.ParameterSet.SequenceTypes
Sequence
p271
g2
Ntp272
Rp273
(dp274
g11
I00
sS'_seq'
p275
g0
(cFWCore.ParameterSet.SequenceTypes
_SequenceCollection
p276
g2
Ntp277
Rp278
(dp279
S'_collection'
p280
(lp281
g0
(cFWCore.ParameterSet.Modules
EDFilter
p282
g2
Ntp283
Rp284
(dp285
g38
(lp286
S'innerTrackRelErr'
p287
aS'PFCandidates'
p288
aS'filterType'
p289
aS'segmentCompatibility'
p290
aS'algo'
p291
aS'taggingMode'
p292
aS'maxDR'
p293
aS'minMuonTrackRelErr'
p294
aS'minMuonPt'
p295
aS'muons'
p296
aS'minPtDiffRel'
p297
asg11
I00
sg287
g0
(cFWCore.ParameterSet.Types
double
p298
g2
Ntp299
Rp300
(dp301
g11
I00
sg19
I01
sg37
F1.0
sg20
I00
sbsg20
I01
sg295
g0
(g298
g2
Ntp302
Rp303
(dp304
g11
I00
sg19
I01
sg37
I100
sg20
I00
sbsg289
g0
(g164
g2
Ntp305
Rp306
(dp307
g11
I00
sg19
I01
sg37
S'BadPFMuon'
p308
sg20
I00
sbsg288
g0
(cFWCore.ParameterSet.Types
InputTag
p309
g2
Ntp310
Rp311
(dp312
g11
I00
sg19
I01
sg20
I00
sS'_InputTag__moduleLabel'
p313
S'packedPFCandidates'
p314
sS'_InputTag__processName'
p315
S''
p316
sS'_InputTag__productInstance'
p317
g316
sbsg297
g0
(g298
g2
Ntp318
Rp319
(dp320
g11
I00
sg19
I01
sg37
F0.0
sg20
I00
sbsg69
S'/afs/cern.ch/work/s/sthakur/xRavindra/MiniTree2017Data/CMSSW_10_4_0/python/ExLep2017Tree/Selection/EventSelectors_cfi.py'
p321
sg40
I19
sg291
g0
(g103
g2
Ntp322
Rp323
(dp324
g11
I00
sg19
I01
sg37
I14
sg20
I00
sbsg292
g0
(g33
g2
Ntp325
Rp326
(dp327
g11
I00
sg19
I01
sg37
I01
sg20
I01
sbsg267
S'BadPFMuonFilter'
p328
sg290
g0
(g298
g2
Ntp329
Rp330
(dp331
g11
I00
sg19
I01
sg37
F0.3
sg20
I00
sbsg294
g0
(g298
g2
Ntp332
Rp333
(dp334
g11
I00
sg19
I01
sg37
F2.0
sg20
I00
sbsg293
g0
(g298
g2
Ntp335
Rp336
(dp337
g11
I00
sg19
I01
sg37
F0.001
sg20
I00
sbsg296
g0
(g309
g2
Ntp338
Rp339
(dp340
g11
I00
sg19
I01
sg20
I00
sg313
S'slimmedMuons'
p341
sg315
g316
sg317
g316
sbsg46
S'BadParticleFilter'
p342
sbag0
(g282
g2
Ntp343
Rp344
(dp345
g38
(lp346
g287
ag288
ag292
ag289
ag293
ag290
ag294
ag295
ag296
ag297
asg11
I00
sg287
g0
(g298
g2
Ntp347
Rp348
(dp349
g11
I00
sg19
I01
sg37
F1.0
sg20
I00
sbsg20
I01
sg69
g321
sg289
g0
(g164
g2
Ntp350
Rp351
(dp352
g11
I00
sg19
I01
sg37
S'BadChargedCandidate'
p353
sg20
I00
sbsg288
g0
(g309
g2
Ntp354
Rp355
(dp356
g11
I00
sg19
I01
sg20
I00
sg313
g314
sg315
g316
sg317
g316
sbsg290
g0
(g298
g2
Ntp357
Rp358
(dp359
g11
I00
sg19
I01
sg37
F0.3
sg20
I00
sbsg40
I15
sg297
g0
(g298
g2
Ntp360
Rp361
(dp362
g11
I00
sg19
I01
sg37
F1e-05
sg20
I00
sbsg292
g0
(g33
g2
Ntp363
Rp364
(dp365
g11
I00
sg19
I01
sg37
I01
sg20
I01
sbsg267
S'BadChargedCandidateFilter'
p366
sg293
g0
(g298
g2
Ntp367
Rp368
(dp369
g11
I00
sg19
I01
sg37
F1e-05
sg20
I00
sbsg294
g0
(g298
g2
Ntp370
Rp371
(dp372
g11
I00
sg19
I01
sg37
F2.0
sg20
I00
sbsg295
g0
(g298
g2
Ntp373
Rp374
(dp375
g11
I00
sg19
I01
sg37
F100.0
sg20
I00
sbsg296
g0
(g309
g2
Ntp376
Rp377
(dp378
g11
I00
sg19
I01
sg20
I00
sg313
g341
sg315
g316
sg317
g316
sbsg46
g342
sbasbsg267
g270
sg20
I00
sS'_tasks'
p379
g0
(cFWCore.ParameterSet.OrderedSet
OrderedSet
p380
g2
Ntp381
Rp382
(dp383
S'map'
p384
(dp385
sS'end'
p386
(lp387
Nag387
ag387
asbsbssS'p'
p388
g0
(cFWCore.ParameterSet.SequenceTypes
Path
p389
g2
Ntp390
Rp391
(dp392
g11
I00
sg275
g0
(g276
g2
Ntp393
Rp394
(dp395
g280
(lp396
g0
(g282
g2
Ntp397
Rp398
(dp399
g38
(lp400
sg11
I00
sg20
I00
sg40
I4
sg69
g321
sg267
S'allEventsFilter'
p401
sg46
S'AllEventsFilter'
p402
sbag273
ag0
(cFWCore.ParameterSet.Modules
EDAnalyzer
p403
g2
Ntp404
Rp405
(dp406
g38
(lp407
S'MCTruth'
p408
aS'Mets'
p409
aS'Vertex'
p410
aS'minEventQualityToStore'
p411
aS'Trigger'
p412
aS'Electrons'
p413
aS'Jets'
p414
aS'Muons'
p415
asg11
I00
sg20
I01
sg40
I36
sg409
g0
(g28
g2
Ntp416
Rp417
(dp418
g11
I00
sg19
I01
sg20
I00
sS'filter2'
p419
g0
(g309
g2
Ntp420
Rp421
(dp422
g11
I00
sg19
I01
sg20
I00
sg313
g328
sg315
g316
sg317
g316
sbsS'sources'
p423
g0
(g309
g2
Ntp424
Rp425
(dp426
g11
I00
sg19
I01
sg20
I00
sg313
S'slimmedMETs'
p427
sg315
g316
sg317
g316
sbsS'filter1'
p428
g0
(g309
g2
Ntp429
Rp430
(dp431
g11
I00
sg19
I01
sg20
I00
sg313
g366
sg315
g316
sg317
g316
sbsS'minMET'
p432
g0
(g298
g2
Ntp433
Rp434
(dp435
g11
I00
sg19
I01
sg37
I10
sg20
I00
sbsg38
(lp436
g432
ag423
ag428
ag419
asg267
S'BaseMetsSet'
p437
sbsg69
g321
sg410
g0
(g28
g2
Ntp438
Rp439
(dp440
g11
I00
sg19
I01
sS'maxZ'
p441
g0
(g298
g2
Ntp442
Rp443
(dp444
g11
I00
sg19
I01
sg37
I24
sg20
I00
sbsg20
I00
sS'beamSpotSource'
p445
g0
(g309
g2
Ntp446
Rp447
(dp448
g11
I00
sg19
I01
sg20
I00
sg313
S'offlineBeamSpot'
p449
sg315
g316
sg317
g316
sbsS'useBeamSpot'
p450
g0
(g33
g2
Ntp451
Rp452
(dp453
g11
I00
sg19
I01
sg37
I01
sg20
I00
sbsS'maxRho'
p454
g0
(g298
g2
Ntp455
Rp456
(dp457
g11
I00
sg19
I01
sg37
F2.0
sg20
I00
sbsS'rho'
p458
g0
(g309
g2
Ntp459
Rp460
(dp461
g11
I00
sg19
I01
sg20
I00
sg313
S'fixedGridRhoAll'
p462
sg315
g316
sg317
g316
sbsg38
(lp463
g441
ag445
ag454
ag458
ag450
aS'minNDOF'
p464
aS'vertexSource'
p465
asg267
S'BaseVertexSet'
p466
sg464
g0
(g103
g2
Ntp467
Rp468
(dp469
g11
I00
sg19
I01
sg37
I4
sg20
I00
sbsg465
g0
(g309
g2
Ntp470
Rp471
(dp472
g11
I00
sg19
I01
sg20
I00
sg313
S'offlineSlimmedPrimaryVertices'
p473
sg315
g316
sg317
g316
sbsbsg408
g255
sg411
g0
(g103
g2
Ntp474
Rp475
(dp476
g11
I00
sg19
I01
sg37
I1
sg20
I00
sbsg412
g0
(g28
g2
Ntp477
Rp478
(dp479
g11
I00
sg19
I01
sg20
I01
sS'sourceFilter'
p480
g0
(g309
g2
Ntp481
Rp482
(dp483
g11
I00
sg19
I01
sg20
I00
sg313
S'TriggerResults'
p484
sg315
S'HLT'
p485
sg317
g316
sbsS'trigBits'
p486
g0
(g13
g14
(lp487
S'HLT_IsoMu24'
p488
aS'HLT_IsoTkMu24'
p489
aS'HLT_Mu50'
p490
aS'HLT_TkMu50'
p491
aS'HLT_DoubleEle33'
p492
aS'HLT_Ele27_WPTight_Gsf'
p493
atp494
Rp495
(dp496
g11
I00
sg19
I01
sg20
I00
sg21
I1
sbsS'source'
p497
g0
(g309
g2
Ntp498
Rp499
(dp500
g11
I00
sg19
I01
sg20
I00
sg313
S'TriggerResults'
p501
sg315
S'HLT'
p502
sg317
g316
sbsS'metFilterBits'
p503
g0
(g13
g14
(lp504
S'Flag_goodVertices'
p505
aS'Flag_globalSuperTightHalo2016Filter'
p506
aS'Flag_HBHENoiseFilter'
p507
aS'Flag_HBHENoiseIsoFilter'
p508
aS'Flag_EcalDeadCellTriggerPrimitiveFilter'
p509
aS'Flag_eeBadScFilter'
p510
atp511
Rp512
(dp513
g11
I00
sg19
I01
sg20
I00
sg21
I1
sbsg38
(lp514
g480
ag503
ag486
ag497
asg267
S'BaseTriggerSet'
p515
sbsg413
g0
(g28
g2
Ntp516
Rp517
(dp518
g11
I00
sg19
I01
sS'beamSpot'
p519
g0
(g309
g2
Ntp520
Rp521
(dp522
g11
I00
sg19
I01
sg20
I00
sg313
g449
sg315
g316
sg317
g316
sbsS'conversionsMiniAOD'
p523
g0
(g309
g2
Ntp524
Rp525
(dp526
g11
I00
sg19
I01
sg20
I00
sg313
S'reducedEgamma'
p527
sg315
g316
sg317
S'reducedConversions'
p528
sbsS'minEt'
p529
g0
(g298
g2
Ntp530
Rp531
(dp532
g11
I00
sg19
I01
sg37
I10
sg20
I00
sbsg423
g0
(g309
g2
Ntp533
Rp534
(dp535
g11
I00
sg19
I01
sg20
I00
sg313
S'slimmedElectrons'
p536
sg315
g316
sg317
g316
sbsg38
(lp537
g519
ag523
ag529
ag423
aS'maxEta'
p538
aS'rhoIso'
p539
asg267
S'BaseElectronsSet'
p540
sg538
g0
(g298
g2
Ntp541
Rp542
(dp543
g11
I00
sg19
I01
sg37
F2.5
sg20
I00
sbsg539
g0
(g309
g2
Ntp544
Rp545
(dp546
g11
I00
sg19
I01
sg20
I00
sg313
S'fixedGridRhoFastjetAll'
p547
sg315
g316
sg317
g316
sbsg20
I00
sbsg267
S'myMiniTreeProducer'
p548
sg414
g0
(g28
g2
Ntp549
Rp550
(dp551
g11
I00
sg19
I01
sS'jet_rho'
p552
g0
(g309
g2
Ntp553
Rp554
(dp555
g11
I00
sg19
I01
sg20
I00
sg313
g462
sg315
g316
sg317
g316
sbsS'dedxSource'
p556
g0
(g309
g2
Ntp557
Rp558
(dp559
g11
I00
sg19
I01
sg20
I00
sg313
S'dedxHarmonic2'
p560
sg315
g316
sg317
g316
sbsg20
I01
sg538
g0
(g298
g2
Ntp561
Rp562
(dp563
g11
I00
sg19
I01
sg37
F2.5
sg20
I00
sbsS'resolutionsFile'
p564
g0
(g164
g2
Ntp565
Rp566
(dp567
g11
I00
sg19
I01
sg37
S'Fall17_V3_MC_PtResolution_AK8PF.txt'
p568
sg20
I00
sbsg423
g0
(g309
g2
Ntp569
Rp570
(dp571
g11
I00
sg19
I01
sg20
I00
sg313
S'slimmedJetsAK8'
p572
sg315
g316
sg317
g316
sbsg38
(lp573
g564
ag552
ag556
aS'minPt'
p574
ag538
ag423
aS'scaleFactorsFile'
p575
asg267
S'BaseJetsSet'
p576
sg575
g0
(g164
g2
Ntp577
Rp578
(dp579
g11
I00
sg19
I01
sg37
S'Fall17_V3_MC_SF_AK8PF.txt'
p580
sg20
I00
sbsg574
g0
(g298
g2
Ntp581
Rp582
(dp583
g11
I00
sg19
I01
sg37
I17
sg20
I00
sbsbsg415
g0
(g28
g2
Ntp584
Rp585
(dp586
g11
I00
sg19
I01
sg20
I00
sg538
g0
(g298
g2
Ntp587
Rp588
(dp589
g11
I00
sg19
I01
sg37
F2.5
sg20
I00
sbsg423
g0
(g309
g2
Ntp590
Rp591
(dp592
g11
I00
sg19
I01
sg20
I00
sg313
g341
sg315
g316
sg317
g316
sbsg38
(lp593
g538
ag423
ag574
asg267
S'BaseMuonsSet'
p594
sg574
g0
(g298
g2
Ntp595
Rp596
(dp597
g11
I00
sg19
I01
sg37
I10
sg20
I00
sbsbsg46
S'MiniTreeProducer'
p598
sbasbsg267
g388
sg20
I00
sg379
g0
(g380
g2
Ntp599
Rp600
(dp601
g384
(dp602
sg386
(lp603
Nag603
ag603
asbsbsS'_Process__services'
p604
(dp605
g6
g9
sS'TFileService'
p606
g0
(g7
g2
Ntp607
Rp608
(dp609
g38
(lp610
S'closeFileFast'
p611
aS'fileName'
p612
asg11
I00
sg176
I01
sg611
g0
(g33
g2
Ntp613
Rp614
(dp615
g11
I00
sg19
I00
sg37
I00
sg20
I00
sbsg40
I11
sg69
g70
sg612
g0
(g164
g2
Ntp616
Rp617
(dp618
g11
I00
sg19
I01
sg37
S'EleRunBver2v2_Data_20191101_Ntuple.root'
p619
sg20
I00
sbsg46
g606
sg20
I01
sbssS'_Process__source'
p620
g0
(cFWCore.ParameterSet.Modules
Source
p621
g2
Ntp622
Rp623
(dp624
g38
(lp625
S'fileNames'
p626
asg11
I00
sg20
I00
sg40
I193
sg69
g70
sg626
g0
(g13
g14
(lp627
S'/store/mc/RunIIFall17MiniAODv2/ExcitedLepton_MuMuZ-250_TuneCP5_13TeV_pythia8/MINIAODSIM/PU2017_12Apr2018_94X_mc2017_realistic_v14-v1/80000/FE840902-D773-E811-B18A-0090FAA569C4.root'
p628
atp629
Rp630
(dp631
g11
I00
sg19
I00
sg20
I00
sg21
I1
sbsg46
S'PoolSource'
p632
sbsS'StripCPEfromTrackAngleESProducer'
p633
g0
(cFWCore.ParameterSet.Modules
ESProducer
p634
g2
Ntp635
Rp636
(dp637
g38
(lp638
S'ComponentType'
p639
aS'ComponentName'
p640
aS'parameters'
p641
asg11
I00
sg20
I01
sg641
g0
(g28
g2
Ntp642
Rp643
(dp644
g11
I00
sg19
I01
sS'maxChgOneMIP'
p645
g0
(g298
g2
Ntp646
Rp647
(dp648
g11
I00
sg19
I01
sg37
F6000.0
sg20
I00
sbsS'mLC_P2'
p649
g0
(g298
g2
Ntp650
Rp651
(dp652
g11
I00
sg19
I01
sg37
F0.3
sg20
I00
sbsS'mLC_P1'
p653
g0
(g298
g2
Ntp654
Rp655
(dp656
g11
I00
sg19
I01
sg37
F0.618
sg20
I00
sbsS'mLC_P0'
p657
g0
(g298
g2
Ntp658
Rp659
(dp660
g11
I00
sg19
I01
sg37
F-0.326
sg20
I00
sbsS'useLegacyError'
p661
g0
(g33
g2
Ntp662
Rp663
(dp664
g11
I00
sg19
I01
sg37
I00
sg20
I00
sbsS'mTIB_P1'
p665
g0
(g298
g2
Ntp666
Rp667
(dp668
g11
I00
sg19
I01
sg37
F0.202
sg20
I00
sbsS'mTEC_P1'
p669
g0
(g298
g2
Ntp670
Rp671
(dp672
g11
I00
sg19
I01
sg37
F0.471
sg20
I00
sbsS'mTEC_P0'
p673
g0
(g298
g2
Ntp674
Rp675
(dp676
g11
I00
sg19
I01
sg37
F-1.885
sg20
I00
sbsS'mTOB_P0'
p677
g0
(g298
g2
Ntp678
Rp679
(dp680
g11
I00
sg19
I01
sg37
F-1.026
sg20
I00
sbsS'mTOB_P1'
p681
g0
(g298
g2
Ntp682
Rp683
(dp684
g11
I00
sg19
I01
sg37
F0.253
sg20
I00
sbsS'mTIB_P0'
p685
g0
(g298
g2
Ntp686
Rp687
(dp688
g11
I00
sg19
I01
sg37
F-0.742
sg20
I00
sbsg38
(lp689
g645
ag649
ag653
ag657
ag661
ag669
ag673
ag677
ag681
ag685
ag665
aS'mTID_P0'
p690
aS'mTID_P1'
p691
asg690
g0
(g298
g2
Ntp692
Rp693
(dp694
g11
I00
sg19
I01
sg37
F-1.427
sg20
I00
sbsg691
g0
(g298
g2
Ntp695
Rp696
(dp697
g11
I00
sg19
I01
sg37
F0.433
sg20
I00
sbsg20
I00
sbsg40
I4
sg640
g0
(g164
g2
Ntp698
Rp699
(dp700
g11
I00
sg19
I01
sg37
S'StripCPEfromTrackAngle'
p701
sg20
I00
sbsg639
g0
(g164
g2
Ntp702
Rp703
(dp704
g11
I00
sg19
I01
sg37
g701
sg20
I00
sbsg69
S'/cvmfs/cms.cern.ch/slc7_amd64_gcc700/cms/cmssw/CMSSW_10_4_0/python/RecoLocalTracker/SiStripRecHitConverter/StripCPEfromTrackAngle_cfi.py'
p705
sg267
g633
sg46
S'StripCPEESProducer'
p706
sbsS'_Process__aliases'
p707
(dp708
sS'siStripBackPlaneCorrectionDepESProducer'
p709
g0
(g634
g2
Ntp710
Rp711
(dp712
g38
(lp713
S'LatencyRecord'
p714
aS'BackPlaneCorrectionDeconvMode'
p715
aS'BackPlaneCorrectionPeakMode'
p716
asg11
I00
sg20
I00
sg40
I53
sg69
g70
sg714
g0
(g28
g2
Ntp717
Rp718
(dp719
g11
I00
sg19
I01
sg20
I00
sS'label'
p720
g0
(g164
g2
Ntp721
Rp722
(dp723
g11
I00
sg19
I00
sg37
g316
sg20
I00
sbsS'record'
p724
g0
(g164
g2
Ntp725
Rp726
(dp727
g11
I00
sg19
I01
sg37
S'SiStripLatencyRcd'
p728
sg20
I00
sbsg38
(lp729
g724
ag720
asbsg716
g0
(g28
g2
Ntp730
Rp731
(dp732
g11
I00
sg19
I01
sg20
I00
sg720
g0
(g164
g2
Ntp733
Rp734
(dp735
g11
I00
sg19
I00
sg37
S'peak'
p736
sg20
I00
sbsg724
g0
(g164
g2
Ntp737
Rp738
(dp739
g11
I00
sg19
I01
sg37
S'SiStripBackPlaneCorrectionRcd'
p740
sg20
I00
sbsg38
(lp741
g724
ag720
asbsg267
g709
sg715
g0
(g28
g2
Ntp742
Rp743
(dp744
g11
I00
sg19
I01
sg20
I00
sg720
g0
(g164
g2
Ntp745
Rp746
(dp747
g11
I00
sg19
I00
sg37
S'deconvolution'
p748
sg20
I00
sbsg724
g0
(g164
g2
Ntp749
Rp750
(dp751
g11
I00
sg19
I01
sg37
g740
sg20
I00
sbsg38
(lp752
g724
ag720
asbsg46
S'SiStripBackPlaneCorrectionDepESProducer'
p753
sbsS'HFRecalParameterBlock'
p754
g0
(g28
g2
Ntp755
Rp756
(dp757
g11
I00
sg19
I01
sg20
I00
sS'HFdepthTwoParameterA'
p758
g0
(cFWCore.ParameterSet.Types
vdouble
p759
g14
(lp760
F0.002861
aF0.004168
aF0.0064
aF0.008388
aF0.011601
aF0.014425
aF0.018633
aF0.023232
aF0.028274
aF0.035447
aF0.051579
aF0.086593
atp761
Rp762
(dp763
g11
I00
sg19
I01
sg20
I00
sbsS'HFdepthOneParameterA'
p764
g0
(g759
g14
(lp765
F0.004123
aF0.00602
aF0.008201
aF0.010489
aF0.013379
aF0.016997
aF0.021464
aF0.027371
aF0.034195
aF0.044807
aF0.058939
aF0.125497
atp766
Rp767
(dp768
g11
I00
sg19
I01
sg20
I00
sbsS'HFdepthOneParameterB'
p769
g0
(g759
g14
(lp770
F-4e-06
aF-2e-06
aF0.0
aF4e-06
aF1.5e-05
aF2.6e-05
aF6.3e-05
aF8.4e-05
aF0.00016
aF0.000107
aF0.000425
aF0.000209
atp771
Rp772
(dp773
g11
I00
sg19
I01
sg20
I00
sbsS'HFdepthTwoParameterB'
p774
g0
(g759
g14
(lp775
F-2e-06
aF-0.0
aF-7e-06
aF-6e-06
aF-2e-06
aF1e-06
aF1.9e-05
aF3.1e-05
aF6.7e-05
aF1.2e-05
aF0.000157
aF-3e-06
atp776
Rp777
(dp778
g11
I00
sg19
I01
sg20
I00
sbsg38
(lp779
g764
ag769
ag774
ag758
asg267
g754
sbsg270
g273
sS'stripCPEESProducer'
p780
g0
(g634
g2
Ntp781
Rp782
(dp783
g38
(lp784
g639
ag640
ag641
asg11
I00
sg20
I00
sg641
g0
(g28
g2
Ntp785
Rp786
(dp787
g11
I00
sg19
I01
sg20
I00
sg38
(lp788
sbsg40
I53
sg640
g0
(g164
g2
Ntp789
Rp790
(dp791
g11
I00
sg19
I01
sg37
S'stripCPE'
p792
sg20
I00
sbsg639
g0
(g164
g2
Ntp793
Rp794
(dp795
g11
I00
sg19
I01
sg37
S'SimpleStripCPE'
p796
sg20
I00
sbsg69
g70
sg267
g780
sg46
g706
sbsS'EcalLaserCorrectionService'
p797
g0
(g634
g2
Ntp798
Rp799
(dp800
g38
(lp801
sg11
I00
sg20
I00
sg40
I53
sg69
g70
sg267
g797
sg46
g797
sbsS'_Process__psets'
p802
(dp803
g540
g517
sg253
g255
sg466
g439
sg437
g417
sg576
g550
sS'maxEvents'
p804
g0
(g28
g2
Ntp805
Rp806
(dp807
g11
I00
sg19
I00
sg20
I00
sg38
(lp808
S'input'
p809
asg267
g804
sg809
g0
(g103
g2
Ntp810
Rp811
(dp812
g11
I00
sg19
I00
sg37
I-1
sg20
I00
sbsbsg515
g478
sg594
g585
sg754
g756
sS'options'
p813
g0
(g28
g2
Ntp814
Rp815
(dp816
g11
I00
sg19
I00
sg20
I00
sS'wantSummary'
p817
g0
(g33
g2
Ntp818
Rp819
(dp820
g11
I00
sg19
I00
sg37
I01
sg20
I00
sbsg38
(lp821
g817
asg267
g813
sbssS'hcal_db_producer'
p822
g0
(g634
g2
Ntp823
Rp824
(dp825
g38
(lp826
S'file'
p827
aS'dump'
p828
asg11
I00
sg20
I00
sg828
g0
(g13
g14
(lp829
g316
atp830
Rp831
(dp832
g11
I00
sg19
I00
sg20
I00
sg21
I1
sbsg40
I53
sg69
g70
sg827
g0
(g164
g2
Ntp833
Rp834
(dp835
g11
I00
sg19
I00
sg37
g316
sg20
I00
sbsg267
g822
sg46
S'HcalDbProducer'
p836
sbsg606
g608
sS'_Process__essources'
p837
(dp838
S'es_hardcode'
p839
g0
(cFWCore.ParameterSet.Modules
ESSource
p840
g2
Ntp841
Rp842
(dp843
g11
I00
sg40
I172
sS'useHEUpgrade'
p844
g0
(g33
g2
Ntp845
Rp846
(dp847
g11
I00
sg19
I01
sg37
I00
sg20
I00
sbsS'HBRecalibration'
p848
g0
(g33
g2
Ntp849
Rp850
(dp851
g11
I00
sg19
I01
sg37
I00
sg20
I00
sbsS'useLayer0Weight'
p852
g0
(g33
g2
Ntp853
Rp854
(dp855
g11
I00
sg19
I01
sg37
I00
sg20
I00
sbsS'HEmeanenergies'
p856
g0
(cFWCore.ParameterSet.Types
FileInPath
p857
g2
Ntp858
Rp859
(dp860
g11
I00
sg19
I01
sg37
S'CalibCalorimetry/HcalPlugins/data/meanenergiesHE.txt'
p861
sg20
I00
sbsg754
g756
sS'heUpgrade'
p862
g0
(g28
g2
Ntp863
Rp864
(dp865
g11
I00
sg19
I01
sS'qieType'
p866
g0
(g103
g2
Ntp867
Rp868
(dp869
g11
I00
sg19
I01
sg37
I2
sg20
I00
sbsg20
I00
sS'pedestalWidth'
p870
g0
(g298
g2
Ntp871
Rp872
(dp873
g11
I00
sg19
I01
sg37
F1.5
sg20
I00
sbsS'recoShape'
p874
g0
(g103
g2
Ntp875
Rp876
(dp877
g11
I00
sg19
I01
sg37
I206
sg20
I00
sbsS'zsThreshold'
p878
g0
(g103
g2
Ntp879
Rp880
(dp881
g11
I00
sg19
I01
sg37
I16
sg20
I00
sbsS'darkCurrent'
p882
g0
(g759
g14
(lp883
F0.01
aF0.015
atp884
Rp885
(dp886
g11
I00
sg19
I01
sg20
I00
sbsS'qieOffset'
p887
g0
(g759
g14
(lp888
F0.0
aF0.0
aF0.0
aF0.0
atp889
Rp890
(dp891
g11
I00
sg19
I01
sg20
I00
sbsS'qieSlope'
p892
g0
(g759
g14
(lp893
F0.05376
aF0.05376
aF0.05376
aF0.05376
atp894
Rp895
(dp896
g11
I00
sg19
I01
sg20
I00
sbsS'radiationDamage'
p897
g0
(g28
g2
Ntp898
Rp899
(dp900
g11
I00
sg19
I01
sS'temperatureNew'
p901
g0
(g298
g2
Ntp902
Rp903
(dp904
g11
I00
sg19
I01
sg37
I5
sg20
I00
sbsg20
I00
sS'depVsNeutrons'
p905
g0
(g759
g14
(lp906
F5.543e-10
aF8.012e-10
atp907
Rp908
(dp909
g11
I00
sg19
I01
sg20
I00
sbsS'temperatureBase'
p910
g0
(g298
g2
Ntp911
Rp912
(dp913
g11
I00
sg19
I01
sg37
I20
sg20
I00
sbsS'depVsTemp'
p914
g0
(g298
g2
Ntp915
Rp916
(dp917
g11
I00
sg19
I01
sg37
F0.0631
sg20
I00
sbsS'intlumiOffset'
p918
g0
(g298
g2
Ntp919
Rp920
(dp921
g11
I00
sg19
I01
sg37
I75
sg20
I00
sbsg38
(lp922
g901
ag905
ag910
ag914
ag918
aS'intlumiToNeutrons'
p923
asg923
g0
(g298
g2
Ntp924
Rp925
(dp926
g11
I00
sg19
I01
sg37
F29200000.0
sg20
I00
sbsbsS'doRadiationDamage'
p927
g0
(g33
g2
Ntp928
Rp929
(dp930
g11
I00
sg19
I01
sg37
I01
sg20
I00
sbsg38
(lp931
g866
ag870
ag874
ag878
aS'photoelectronsToAnalog'
p932
ag887
ag892
ag897
ag927
ag882
aS'pedestal'
p933
aS'mcShape'
p934
aS'gainWidth'
p935
aS'gain'
p936
asg932
g0
(g298
g2
Ntp937
Rp938
(dp939
g11
I00
sg19
I01
sg37
F40.0
sg20
I00
sbsg933
g0
(g298
g2
Ntp940
Rp941
(dp942
g11
I00
sg19
I01
sg37
F17.3
sg20
I00
sbsg934
g0
(g103
g2
Ntp943
Rp944
(dp945
g11
I00
sg19
I01
sg37
I206
sg20
I00
sbsg935
g0
(g759
g14
(lp946
I0
atp947
Rp948
(dp949
g11
I00
sg19
I01
sg20
I00
sbsg936
g0
(g759
g14
(lp950
F0.0006252
atp951
Rp952
(dp953
g11
I00
sg19
I01
sg20
I00
sbsbsg38
(lp954
S'toGet'
p955
ag848
ag852
ag856
ag754
ag862
aS'useIeta18depth1'
p956
aS'killHE'
p957
aS'useHBUpgrade'
p958
aS'hbUpgrade'
p959
aS'testHEPlan1'
p960
aS'iLumi'
p961
aS'testHFQIE10'
p962
aS'HBmeanenergies'
p963
ag844
aS'GainWidthsForTrigPrims'
p964
aS'HBreCalibCutoff'
p965
aS'HFRecalibration'
p966
aS'ho'
p967
aS'hb'
p968
aS'hf'
p969
aS'he'
p970
aS'HERecalibration'
p971
aS'useHFUpgrade'
p972
aS'HEreCalibCutoff'
p973
aS'SiPMCharacteristics'
p974
aS'useHOUpgrade'
p975
aS'hfUpgrade'
p976
asg69
S'/cvmfs/cms.cern.ch/slc7_amd64_gcc700/cms/cmssw/CMSSW_10_4_0/python/CalibCalorimetry/HcalPlugins/Hcal_Conditions_forGlobalTag_cff.py'
p977
sg956
g0
(g33
g2
Ntp978
Rp979
(dp980
g11
I00
sg19
I01
sg37
I01
sg20
I00
sbsg957
g0
(g33
g2
Ntp981
Rp982
(dp983
g11
I00
sg19
I01
sg37
I00
sg20
I00
sbsg958
g0
(g33
g2
Ntp984
Rp985
(dp986
g11
I00
sg19
I01
sg37
I00
sg20
I00
sbsg959
g0
(g28
g2
Ntp987
Rp988
(dp989
g11
I00
sg19
I01
sg866
g0
(g103
g2
Ntp990
Rp991
(dp992
g11
I00
sg19
I01
sg37
I2
sg20
I00
sbsg20
I00
sg870
g0
(g298
g2
Ntp993
Rp994
(dp995
g11
I00
sg19
I01
sg37
F1.5
sg20
I00
sbsg874
g0
(g103
g2
Ntp996
Rp997
(dp998
g11
I00
sg19
I01
sg37
I206
sg20
I00
sbsg878
g0
(g103
g2
Ntp999
Rp1000
(dp1001
g11
I00
sg19
I01
sg37
I16
sg20
I00
sbsg882
g0
(g759
g14
(lp1002
F0.01
aF0.015
atp1003
Rp1004
(dp1005
g11
I00
sg19
I01
sg20
I00
sbsg887
g0
(g759
g14
(lp1006
F0.0
aF0.0
aF0.0
aF0.0
atp1007
Rp1008
(dp1009
g11
I00
sg19
I01
sg20
I00
sbsg892
g0
(g759
g14
(lp1010
F0.05376
aF0.05376
aF0.05376
aF0.05376
atp1011
Rp1012
(dp1013
g11
I00
sg19
I01
sg20
I00
sbsg897
g0
(g28
g2
Ntp1014
Rp1015
(dp1016
g11
I00
sg19
I01
sg901
g0
(g298
g2
Ntp1017
Rp1018
(dp1019
g11
I00
sg19
I01
sg37
I-5
sg20
I00
sbsg20
I00
sg905
g0
(g759
g14
(lp1020
F5.543e-10
aF8.012e-10
atp1021
Rp1022
(dp1023
g11
I00
sg19
I01
sg20
I00
sbsg910
g0
(g298
g2
Ntp1024
Rp1025
(dp1026
g11
I00
sg19
I01
sg37
I20
sg20
I00
sbsg914
g0
(g298
g2
Ntp1027
Rp1028
(dp1029
g11
I00
sg19
I01
sg37
F0.0631
sg20
I00
sbsg918
g0
(g298
g2
Ntp1030
Rp1031
(dp1032
g11
I00
sg19
I01
sg37
I150
sg20
I00
sbsg38
(lp1033
g901
ag905
ag910
ag914
ag918
ag923
asg923
g0
(g298
g2
Ntp1034
Rp1035
(dp1036
g11
I00
sg19
I01
sg37
F367000000.0
sg20
I00
sbsbsg927
g0
(g33
g2
Ntp1037
Rp1038
(dp1039
g11
I00
sg19
I01
sg37
I01
sg20
I00
sbsg38
(lp1040
g866
ag870
ag874
ag878
ag932
ag887
ag892
ag897
ag927
ag882
ag933
ag934
ag935
ag936
asg932
g0
(g298
g2
Ntp1041
Rp1042
(dp1043
g11
I00
sg19
I01
sg37
F40.0
sg20
I00
sbsg933
g0
(g298
g2
Ntp1044
Rp1045
(dp1046
g11
I00
sg19
I01
sg37
F17.3
sg20
I00
sbsg934
g0
(g103
g2
Ntp1047
Rp1048
(dp1049
g11
I00
sg19
I01
sg37
I206
sg20
I00
sbsg935
g0
(g759
g14
(lp1050
I0
atp1051
Rp1052
(dp1053
g11
I00
sg19
I01
sg20
I00
sbsg936
g0
(g759
g14
(lp1054
F0.0006252
atp1055
Rp1056
(dp1057
g11
I00
sg19
I01
sg20
I00
sbsbsg46
S'HcalHardcodeCalibrations'
p1058
sg960
g0
(g33
g2
Ntp1059
Rp1060
(dp1061
g11
I00
sg19
I01
sg37
I00
sg20
I00
sbsg961
g0
(g298
g2
Ntp1062
Rp1063
(dp1064
g11
I00
sg19
I01
sg37
F-1.0
sg20
I00
sbsg962
g0
(g33
g2
Ntp1065
Rp1066
(dp1067
g11
I00
sg19
I01
sg37
I00
sg20
I00
sbsg963
g0
(g857
g2
Ntp1068
Rp1069
(dp1070
g11
I00
sg19
I01
sg37
S'CalibCalorimetry/HcalPlugins/data/meanenergiesHB.txt'
p1071
sg20
I00
sbsg955
g0
(g13
g14
(lp1072
S'GainWidths'
p1073
atp1074
Rp1075
(dp1076
g11
I00
sg19
I00
sg20
I00
sg21
I1
sbsg964
g0
(g33
g2
Ntp1077
Rp1078
(dp1079
g11
I00
sg19
I01
sg37
I00
sg20
I00
sbsg965
g0
(g298
g2
Ntp1080
Rp1081
(dp1082
g11
I00
sg19
I01
sg37
F20.0
sg20
I00
sbsg966
g0
(g33
g2
Ntp1083
Rp1084
(dp1085
g11
I00
sg19
I01
sg37
I00
sg20
I00
sbsg967
g0
(g28
g2
Ntp1086
Rp1087
(dp1088
g11
I00
sg19
I01
sg866
g0
(g103
g2
Ntp1089
Rp1090
(dp1091
g11
I00
sg19
I01
sg37
I0
sg20
I00
sbsg20
I00
sg870
g0
(g298
g2
Ntp1092
Rp1093
(dp1094
g11
I00
sg19
I01
sg37
F0.6285
sg20
I00
sbsg874
g0
(g103
g2
Ntp1095
Rp1096
(dp1097
g11
I00
sg19
I01
sg37
I201
sg20
I00
sbsg878
g0
(g103
g2
Ntp1098
Rp1099
(dp1100
g11
I00
sg19
I01
sg37
I24
sg20
I00
sbsg882
g0
(g759
g14
(lp1101
F0.0
atp1102
Rp1103
(dp1104
g11
I00
sg19
I01
sg20
I00
sbsg887
g0
(g759
g14
(lp1105
F-0.44
aF1.4
aF7.1
aF38.5
atp1106
Rp1107
(dp1108
g11
I00
sg19
I01
sg20
I00
sbsg892
g0
(g759
g14
(lp1109
F0.907
aF0.915
aF0.92
aF0.921
atp1110
Rp1111
(dp1112
g11
I00
sg19
I01
sg20
I00
sbsg936
g0
(g759
g14
(lp1113
F0.006
aF0.0087
atp1114
Rp1115
(dp1116
g11
I00
sg19
I01
sg20
I00
sbsg927
g0
(g33
g2
Ntp1117
Rp1118
(dp1119
g11
I00
sg19
I01
sg37
I00
sg20
I00
sbsg38
(lp1120
g866
ag870
ag874
ag878
ag932
ag887
ag892
ag936
ag927
ag882
ag933
ag934
ag935
asg932
g0
(g298
g2
Ntp1121
Rp1122
(dp1123
g11
I00
sg19
I01
sg37
F4.0
sg20
I00
sbsg933
g0
(g298
g2
Ntp1124
Rp1125
(dp1126
g11
I00
sg19
I01
sg37
F12.06
sg20
I00
sbsg934
g0
(g103
g2
Ntp1127
Rp1128
(dp1129
g11
I00
sg19
I01
sg37
I201
sg20
I00
sbsg935
g0
(g759
g14
(lp1130
F0.0
aF0.0
atp1131
Rp1132
(dp1133
g11
I00
sg19
I01
sg20
I00
sbsbsg968
g0
(g28
g2
Ntp1134
Rp1135
(dp1136
g11
I00
sg19
I01
sg866
g0
(g103
g2
Ntp1137
Rp1138
(dp1139
g11
I00
sg19
I01
sg37
I0
sg20
I00
sbsg20
I00
sg870
g0
(g298
g2
Ntp1140
Rp1141
(dp1142
g11
I00
sg19
I01
sg37
F0.809
sg20
I00
sbsg874
g0
(g103
g2
Ntp1143
Rp1144
(dp1145
g11
I00
sg19
I01
sg37
I105
sg20
I00
sbsg878
g0
(g103
g2
Ntp1146
Rp1147
(dp1148
g11
I00
sg19
I01
sg37
I8
sg20
I00
sbsg882
g0
(g759
g14
(lp1149
F0.0
atp1150
Rp1151
(dp1152
g11
I00
sg19
I01
sg20
I00
sbsg887
g0
(g759
g14
(lp1153
F-0.49
aF1.8
aF7.2
aF37.9
atp1154
Rp1155
(dp1156
g11
I00
sg19
I01
sg20
I00
sbsg892
g0
(g759
g14
(lp1157
F0.912
aF0.917
aF0.922
aF0.923
atp1158
Rp1159
(dp1160
g11
I00
sg19
I01
sg20
I00
sbsg936
g0
(g759
g14
(lp1161
F0.19
atp1162
Rp1163
(dp1164
g11
I00
sg19
I01
sg20
I00
sbsg927
g0
(g33
g2
Ntp1165
Rp1166
(dp1167
g11
I00
sg19
I01
sg37
I00
sg20
I00
sbsg38
(lp1168
g866
ag870
ag874
ag878
ag932
ag887
ag892
ag936
ag927
ag882
ag933
ag934
ag935
asg932
g0
(g298
g2
Ntp1169
Rp1170
(dp1171
g11
I00
sg19
I01
sg37
F0.3305
sg20
I00
sbsg933
g0
(g298
g2
Ntp1172
Rp1173
(dp1174
g11
I00
sg19
I01
sg37
F3.285
sg20
I00
sbsg934
g0
(g103
g2
Ntp1175
Rp1176
(dp1177
g11
I00
sg19
I01
sg37
I125
sg20
I00
sbsg935
g0
(g759
g14
(lp1178
F0.0
atp1179
Rp1180
(dp1181
g11
I00
sg19
I01
sg20
I00
sbsbsg969
g0
(g28
g2
Ntp1182
Rp1183
(dp1184
g11
I00
sg19
I01
sg866
g0
(g103
g2
Ntp1185
Rp1186
(dp1187
g11
I00
sg19
I01
sg37
I0
sg20
I00
sbsg20
I00
sg870
g0
(g298
g2
Ntp1188
Rp1189
(dp1190
g11
I00
sg19
I01
sg37
F2.516
sg20
I00
sbsg874
g0
(g103
g2
Ntp1191
Rp1192
(dp1193
g11
I00
sg19
I01
sg37
I301
sg20
I00
sbsg878
g0
(g103
g2
Ntp1194
Rp1195
(dp1196
g11
I00
sg19
I01
sg37
I-9999
sg20
I00
sbsg882
g0
(g759
g14
(lp1197
F0.0
atp1198
Rp1199
(dp1200
g11
I00
sg19
I01
sg20
I00
sbsg887
g0
(g759
g14
(lp1201
F-0.87
aF1.4
aF7.8
aF-29.6
atp1202
Rp1203
(dp1204
g11
I00
sg19
I01
sg20
I00
sbsg892
g0
(g759
g14
(lp1205
F0.359
aF0.358
aF0.36
aF0.367
atp1206
Rp1207
(dp1208
g11
I00
sg19
I01
sg20
I00
sbsg936
g0
(g759
g14
(lp1209
F0.14
aF0.135
atp1210
Rp1211
(dp1212
g11
I00
sg19
I01
sg20
I00
sbsg927
g0
(g33
g2
Ntp1213
Rp1214
(dp1215
g11
I00
sg19
I01
sg37
I00
sg20
I00
sbsg38
(lp1216
g866
ag870
ag874
ag878
ag932
ag887
ag892
ag936
ag927
ag882
ag933
ag934
ag935
asg932
g0
(g298
g2
Ntp1217
Rp1218
(dp1219
g11
I00
sg19
I01
sg37
F0.0
sg20
I00
sbsg933
g0
(g298
g2
Ntp1220
Rp1221
(dp1222
g11
I00
sg19
I01
sg37
F9.354
sg20
I00
sbsg934
g0
(g103
g2
Ntp1223
Rp1224
(dp1225
g11
I00
sg19
I01
sg37
I301
sg20
I00
sbsg935
g0
(g759
g14
(lp1226
F0.0
aF0.0
atp1227
Rp1228
(dp1229
g11
I00
sg19
I01
sg20
I00
sbsbsg970
g0
(g28
g2
Ntp1230
Rp1231
(dp1232
g11
I00
sg19
I01
sg866
g0
(g103
g2
Ntp1233
Rp1234
(dp1235
g11
I00
sg19
I01
sg37
I0
sg20
I00
sbsg20
I00
sg870
g0
(g298
g2
Ntp1236
Rp1237
(dp1238
g11
I00
sg19
I01
sg37
F0.9698
sg20
I00
sbsg874
g0
(g103
g2
Ntp1239
Rp1240
(dp1241
g11
I00
sg19
I01
sg37
I105
sg20
I00
sbsg878
g0
(g103
g2
Ntp1242
Rp1243
(dp1244
g11
I00
sg19
I01
sg37
I9
sg20
I00
sbsg882
g0
(g759
g14
(lp1245
F0.0
atp1246
Rp1247
(dp1248
g11
I00
sg19
I01
sg20
I00
sbsg887
g0
(g759
g14
(lp1249
F-0.38
aF2.0
aF7.6
aF39.6
atp1250
Rp1251
(dp1252
g11
I00
sg19
I01
sg20
I00
sbsg892
g0
(g759
g14
(lp1253
F0.912
aF0.916
aF0.92
aF0.922
atp1254
Rp1255
(dp1256
g11
I00
sg19
I01
sg20
I00
sbsg936
g0
(g759
g14
(lp1257
F0.23
atp1258
Rp1259
(dp1260
g11
I00
sg19
I01
sg20
I00
sbsg927
g0
(g33
g2
Ntp1261
Rp1262
(dp1263
g11
I00
sg19
I01
sg37
I00
sg20
I00
sbsg38
(lp1264
g866
ag870
ag874
ag878
ag932
ag887
ag892
ag936
ag927
ag882
ag933
ag934
ag935
asg932
g0
(g298
g2
Ntp1265
Rp1266
(dp1267
g11
I00
sg19
I01
sg37
F0.3305
sg20
I00
sbsg933
g0
(g298
g2
Ntp1268
Rp1269
(dp1270
g11
I00
sg19
I01
sg37
F3.163
sg20
I00
sbsg934
g0
(g103
g2
Ntp1271
Rp1272
(dp1273
g11
I00
sg19
I01
sg37
I125
sg20
I00
sbsg935
g0
(g759
g14
(lp1274
I0
atp1275
Rp1276
(dp1277
g11
I00
sg19
I01
sg20
I00
sbsbsg20
I00
sg971
g0
(g33
g2
Ntp1278
Rp1279
(dp1280
g11
I00
sg19
I01
sg37
I00
sg20
I00
sbsg972
g0
(g33
g2
Ntp1281
Rp1282
(dp1283
g11
I00
sg19
I01
sg37
I00
sg20
I00
sbsg973
g0
(g298
g2
Ntp1284
Rp1285
(dp1286
g11
I00
sg19
I01
sg37
F20.0
sg20
I00
sbsg974
g0
(cFWCore.ParameterSet.Types
VPSet
p1287
g14
(lp1288
g0
(g28
g2
Ntp1289
Rp1290
(dp1291
g11
I00
sg19
I01
sg20
I00
sS'crosstalk'
p1292
g0
(g298
g2
Ntp1293
Rp1294
(dp1295
g11
I00
sg19
I01
sg37
F0.0
sg20
I00
sbsS'nonlin1'
p1296
g0
(g298
g2
Ntp1297
Rp1298
(dp1299
g11
I00
sg19
I01
sg37
F1.0
sg20
I00
sbsS'nonlin3'
p1300
g0
(g298
g2
Ntp1301
Rp1302
(dp1303
g11
I00
sg19
I01
sg37
F0.0
sg20
I00
sbsS'nonlin2'
p1304
g0
(g298
g2
Ntp1305
Rp1306
(dp1307
g11
I00
sg19
I01
sg37
F0.0
sg20
I00
sbsg38
(lp1308
g1296
ag1300
ag1304
aS'pixels'
p1309
ag1292
asg1309
g0
(g103
g2
Ntp1310
Rp1311
(dp1312
g11
I00
sg19
I01
sg37
I36000
sg20
I00
sbsbag0
(g28
g2
Ntp1313
Rp1314
(dp1315
g11
I00
sg19
I01
sg20
I00
sg1292
g0
(g298
g2
Ntp1316
Rp1317
(dp1318
g11
I00
sg19
I01
sg37
F0.0
sg20
I00
sbsg1296
g0
(g298
g2
Ntp1319
Rp1320
(dp1321
g11
I00
sg19
I01
sg37
F1.0
sg20
I00
sbsg1300
g0
(g298
g2
Ntp1322
Rp1323
(dp1324
g11
I00
sg19
I01
sg37
F0.0
sg20
I00
sbsg1304
g0
(g298
g2
Ntp1325
Rp1326
(dp1327
g11
I00
sg19
I01
sg37
F0.0
sg20
I00
sbsg38
(lp1328
g1296
ag1300
ag1304
ag1309
ag1292
asg1309
g0
(g103
g2
Ntp1329
Rp1330
(dp1331
g11
I00
sg19
I01
sg37
I2500
sg20
I00
sbsbag0
(g28
g2
Ntp1332
Rp1333
(dp1334
g11
I00
sg19
I01
sg20
I00
sg1292
g0
(g298
g2
Ntp1335
Rp1336
(dp1337
g11
I00
sg19
I01
sg37
F0.17
sg20
I00
sbsg1296
g0
(g298
g2
Ntp1338
Rp1339
(dp1340
g11
I00
sg19
I01
sg37
F1.00985
sg20
I00
sbsg1300
g0
(g298
g2
Ntp1341
Rp1342
(dp1343
g11
I00
sg19
I01
sg37
F2.86282e-10
sg20
I00
sbsg1304
g0
(g298
g2
Ntp1344
Rp1345
(dp1346
g11
I00
sg19
I01
sg37
F7.84089e-06
sg20
I00
sbsg38
(lp1347
g1296
ag1300
ag1304
ag1309
ag1292
asg1309
g0
(g103
g2
Ntp1348
Rp1349
(dp1350
g11
I00
sg19
I01
sg37
I27370
sg20
I00
sbsbag0
(g28
g2
Ntp1351
Rp1352
(dp1353
g11
I00
sg19
I01
sg20
I00
sg1292
g0
(g298
g2
Ntp1354
Rp1355
(dp1356
g11
I00
sg19
I01
sg37
F0.196
sg20
I00
sbsg1296
g0
(g298
g2
Ntp1357
Rp1358
(dp1359
g11
I00
sg19
I01
sg37
F1.00546
sg20
I00
sbsg1300
g0
(g298
g2
Ntp1360
Rp1361
(dp1362
g11
I00
sg19
I01
sg37
F1.27011e-10
sg20
I00
sbsg1304
g0
(g298
g2
Ntp1363
Rp1364
(dp1365
g11
I00
sg19
I01
sg37
F6.40239e-06
sg20
I00
sbsg38
(lp1366
g1296
ag1300
ag1304
ag1309
ag1292
asg1309
g0
(g103
g2
Ntp1367
Rp1368
(dp1369
g11
I00
sg19
I01
sg37
I38018
sg20
I00
sbsbag0
(g28
g2
Ntp1370
Rp1371
(dp1372
g11
I00
sg19
I01
sg20
I00
sg1292
g0
(g298
g2
Ntp1373
Rp1374
(dp1375
g11
I00
sg19
I01
sg37
F0.17
sg20
I00
sbsg1296
g0
(g298
g2
Ntp1376
Rp1377
(dp1378
g11
I00
sg19
I01
sg37
F1.00985
sg20
I00
sbsg1300
g0
(g298
g2
Ntp1379
Rp1380
(dp1381
g11
I00
sg19
I01
sg37
F2.86282e-10
sg20
I00
sbsg1304
g0
(g298
g2
Ntp1382
Rp1383
(dp1384
g11
I00
sg19
I01
sg37
F7.84089e-06
sg20
I00
sbsg38
(lp1385
g1296
ag1300
ag1304
ag1309
ag1292
asg1309
g0
(g103
g2
Ntp1386
Rp1387
(dp1388
g11
I00
sg19
I01
sg37
I27370
sg20
I00
sbsbag0
(g28
g2
Ntp1389
Rp1390
(dp1391
g11
I00
sg19
I01
sg20
I00
sg1292
g0
(g298
g2
Ntp1392
Rp1393
(dp1394
g11
I00
sg19
I01
sg37
F0.196
sg20
I00
sbsg1296
g0
(g298
g2
Ntp1395
Rp1396
(dp1397
g11
I00
sg19
I01
sg37
F1.00546
sg20
I00
sbsg1300
g0
(g298
g2
Ntp1398
Rp1399
(dp1400
g11
I00
sg19
I01
sg37
F1.27011e-10
sg20
I00
sbsg1304
g0
(g298
g2
Ntp1401
Rp1402
(dp1403
g11
I00
sg19
I01
sg37
F6.40239e-06
sg20
I00
sbsg38
(lp1404
g1296
ag1300
ag1304
ag1309
ag1292
asg1309
g0
(g103
g2
Ntp1405
Rp1406
(dp1407
g11
I00
sg19
I01
sg37
I38018
sg20
I00
sbsbag0
(g28
g2
Ntp1408
Rp1409
(dp1410
g11
I00
sg19
I01
sg20
I00
sg1292
g0
(g298
g2
Ntp1411
Rp1412
(dp1413
g11
I00
sg19
I01
sg37
F0.0
sg20
I00
sbsg1296
g0
(g298
g2
Ntp1414
Rp1415
(dp1416
g11
I00
sg19
I01
sg37
F1.0
sg20
I00
sbsg1300
g0
(g298
g2
Ntp1417
Rp1418
(dp1419
g11
I00
sg19
I01
sg37
F0.0
sg20
I00
sbsg1304
g0
(g298
g2
Ntp1420
Rp1421
(dp1422
g11
I00
sg19
I01
sg37
F0.0
sg20
I00
sbsg38
(lp1423
g1296
ag1300
ag1304
ag1309
ag1292
asg1309
g0
(g103
g2
Ntp1424
Rp1425
(dp1426
g11
I00
sg19
I01
sg37
I0
sg20
I00
sbsbatp1427
Rp1428
(dp1429
g11
I00
sg19
I01
sg20
I00
sg21
I1
sbsg267
g839
sg975
g0
(g33
g2
Ntp1430
Rp1431
(dp1432
g11
I00
sg19
I01
sg37
I01
sg20
I00
sbsg976
g0
(g28
g2
Ntp1433
Rp1434
(dp1435
g11
I00
sg19
I01
sg866
g0
(g103
g2
Ntp1436
Rp1437
(dp1438
g11
I00
sg19
I01
sg37
I1
sg20
I00
sbsg20
I00
sg870
g0
(g298
g2
Ntp1439
Rp1440
(dp1441
g11
I00
sg19
I01
sg37
F3.33
sg20
I00
sbsg874
g0
(g103
g2
Ntp1442
Rp1443
(dp1444
g11
I00
sg19
I01
sg37
I301
sg20
I00
sbsg878
g0
(g103
g2
Ntp1445
Rp1446
(dp1447
g11
I00
sg19
I01
sg37
I-9999
sg20
I00
sbsg882
g0
(g759
g14
(lp1448
F0.0
atp1449
Rp1450
(dp1451
g11
I00
sg19
I01
sg20
I00
sbsg887
g0
(g759
g14
(lp1452
F0.0697
aF-0.7405
aF12.38
aF-671.9
atp1453
Rp1454
(dp1455
g11
I00
sg19
I01
sg20
I00
sbsg892
g0
(g759
g14
(lp1456
F0.297
aF0.298
aF0.298
aF0.313
atp1457
Rp1458
(dp1459
g11
I00
sg19
I01
sg20
I00
sbsg936
g0
(g759
g14
(lp1460
F0.14
aF0.135
atp1461
Rp1462
(dp1463
g11
I00
sg19
I01
sg20
I00
sbsg927
g0
(g33
g2
Ntp1464
Rp1465
(dp1466
g11
I00
sg19
I01
sg37
I00
sg20
I00
sbsg38
(lp1467
g866
ag870
ag874
ag878
ag932
ag887
ag892
ag936
ag927
ag882
ag933
ag934
ag935
asg932
g0
(g298
g2
Ntp1468
Rp1469
(dp1470
g11
I00
sg19
I01
sg37
F0.0
sg20
I00
sbsg933
g0
(g298
g2
Ntp1471
Rp1472
(dp1473
g11
I00
sg19
I01
sg37
F13.33
sg20
I00
sbsg934
g0
(g103
g2
Ntp1474
Rp1475
(dp1476
g11
I00
sg19
I01
sg37
I301
sg20
I00
sbsg935
g0
(g759
g14
(lp1477
F0.0
aF0.0
atp1478
Rp1479
(dp1480
g11
I00
sg19
I01
sg20
I00
sbsbsbsS'GlobalTag'
p1481
g0
(g840
g2
Ntp1482
Rp1483
(dp1484
g38
(lp1485
S'DBParameters'
p1486
aS'connect'
p1487
aS'globaltag'
p1488
aS'RefreshEachRun'
p1489
aS'pfnPrefix'
p1490
aS'snapshotTime'
p1491
ag955
aS'pfnPostfix'
p1492
aS'RefreshAlways'
p1493
aS'ReconnectEachRun'
p1494
aS'RefreshOpenIOVs'
p1495
aS'DumpStat'
p1496
asg11
I00
sg69
S'/cvmfs/cms.cern.ch/slc7_amd64_gcc700/cms/cmssw/CMSSW_10_4_0/python/CondCore/ESSources/CondDBESSource_cfi.py'
p1497
sg20
I01
sg1488
g0
(g164
g2
Ntp1498
Rp1499
(dp1500
g11
I00
sg19
I01
sg37
S'80X_mcRun2_asymptotic_2016_TrancheIV_v6'
p1501
sg20
I00
sbsg1489
g0
(g33
g2
Ntp1502
Rp1503
(dp1504
g11
I00
sg19
I00
sg37
I00
sg20
I00
sbsg1490
g0
(g164
g2
Ntp1505
Rp1506
(dp1507
g11
I00
sg19
I00
sg37
g316
sg20
I00
sbsg1491
g0
(g164
g2
Ntp1508
Rp1509
(dp1510
g11
I00
sg19
I01
sg37
g316
sg20
I00
sbsg955
g0
(g1287
g14
(lp1511
tp1512
Rp1513
(dp1514
g11
I00
sg19
I01
sg20
I00
sg21
I1
sbsg1492
g0
(g164
g2
Ntp1515
Rp1516
(dp1517
g11
I00
sg19
I00
sg37
g316
sg20
I00
sbsg1486
g0
(g28
g2
Ntp1518
Rp1519
(dp1520
g11
I00
sg19
I01
sS'authenticationPath'
p1521
g0
(g164
g2
Ntp1522
Rp1523
(dp1524
g11
I00
sg19
I00
sg37
g316
sg20
I00
sbsg20
I00
sS'messageLevel'
p1525
g0
(g103
g2
Ntp1526
Rp1527
(dp1528
g11
I00
sg19
I00
sg37
I0
sg20
I00
sbsg38
(lp1529
g1525
aS'security'
p1530
aS'authenticationSystem'
p1531
ag1521
asg1530
g0
(g164
g2
Ntp1532
Rp1533
(dp1534
g11
I00
sg19
I00
sg37
g316
sg20
I00
sbsg1531
g0
(g103
g2
Ntp1535
Rp1536
(dp1537
g11
I00
sg19
I00
sg37
I0
sg20
I00
sbsbsg1493
g0
(g33
g2
Ntp1538
Rp1539
(dp1540
g11
I00
sg19
I00
sg37
I00
sg20
I00
sbsg40
I19
sg1487
g0
(g164
g2
Ntp1541
Rp1542
(dp1543
g11
I00
sg19
I01
sg37
S'frontier://FrontierProd/CMS_CONDITIONS'
p1544
sg20
I00
sbsg1494
g0
(g33
g2
Ntp1545
Rp1546
(dp1547
g11
I00
sg19
I00
sg37
I00
sg20
I00
sbsg267
g1481
sg1495
g0
(g33
g2
Ntp1548
Rp1549
(dp1550
g11
I00
sg19
I00
sg37
I00
sg20
I00
sbsg1496
g0
(g33
g2
Ntp1551
Rp1552
(dp1553
g11
I00
sg19
I00
sg37
I00
sg20
I00
sbsg46
S'PoolDBESSource'
p1554
sbsS'HcalTimeSlewEP'
p1555
g0
(g840
g2
Ntp1556
Rp1557
(dp1558
g38
(lp1559
S'timeSlewParametersM3'
p1560
aS'timeSlewParametersM2'
p1561
aS'appendToDataLabel'
p1562
asg11
I00
sg1560
g0
(g1287
g14
(lp1563
g0
(g28
g2
Ntp1564
Rp1565
(dp1566
g11
I00
sg19
I01
sS'tspar2'
p1567
g0
(g298
g2
Ntp1568
Rp1569
(dp1570
g11
I00
sg19
I01
sg37
F0.0
sg20
I00
sbsg20
I00
sS'tspar0'
p1571
g0
(g298
g2
Ntp1572
Rp1573
(dp1574
g11
I00
sg19
I01
sg37
F12.2999
sg20
I00
sbsS'tspar1'
p1575
g0
(g298
g2
Ntp1576
Rp1577
(dp1578
g11
I00
sg19
I01
sg37
F-2.19142
sg20
I00
sbsS'tspar1_siPM'
p1579
g0
(g298
g2
Ntp1580
Rp1581
(dp1582
g11
I00
sg19
I01
sg37
F0.0
sg20
I00
sbsS'cap'
p1583
g0
(g298
g2
Ntp1584
Rp1585
(dp1586
g11
I00
sg19
I01
sg37
F6.0
sg20
I00
sbsS'tspar0_siPM'
p1587
g0
(g298
g2
Ntp1588
Rp1589
(dp1590
g11
I00
sg19
I01
sg37
F0.0
sg20
I00
sbsg38
(lp1591
g1567
ag1571
ag1575
ag1579
ag1583
ag1587
aS'tspar2_siPM'
p1592
asg1592
g0
(g298
g2
Ntp1593
Rp1594
(dp1595
g11
I00
sg19
I01
sg37
F0.0
sg20
I00
sbsbag0
(g28
g2
Ntp1596
Rp1597
(dp1598
g11
I00
sg19
I01
sg1567
g0
(g298
g2
Ntp1599
Rp1600
(dp1601
g11
I00
sg19
I01
sg37
F32.0
sg20
I00
sbsg20
I00
sg1571
g0
(g298
g2
Ntp1602
Rp1603
(dp1604
g11
I00
sg19
I01
sg37
F15.5
sg20
I00
sbsg1575
g0
(g298
g2
Ntp1605
Rp1606
(dp1607
g11
I00
sg19
I01
sg37
F-3.2
sg20
I00
sbsg1579
g0
(g298
g2
Ntp1608
Rp1609
(dp1610
g11
I00
sg19
I01
sg37
F0.0
sg20
I00
sbsg1583
g0
(g298
g2
Ntp1611
Rp1612
(dp1613
g11
I00
sg19
I01
sg37
F6.0
sg20
I00
sbsg1587
g0
(g298
g2
Ntp1614
Rp1615
(dp1616
g11
I00
sg19
I01
sg37
F0.0
sg20
I00
sbsg38
(lp1617
g1567
ag1571
ag1575
ag1579
ag1583
ag1587
ag1592
asg1592
g0
(g298
g2
Ntp1618
Rp1619
(dp1620
g11
I00
sg19
I01
sg37
F0.0
sg20
I00
sbsbag0
(g28
g2
Ntp1621
Rp1622
(dp1623
g11
I00
sg19
I01
sg1567
g0
(g298
g2
Ntp1624
Rp1625
(dp1626
g11
I00
sg19
I01
sg37
F0.0
sg20
I00
sbsg20
I00
sg1571
g0
(g298
g2
Ntp1627
Rp1628
(dp1629
g11
I00
sg19
I01
sg37
F12.2999
sg20
I00
sbsg1575
g0
(g298
g2
Ntp1630
Rp1631
(dp1632
g11
I00
sg19
I01
sg37
F-2.19142
sg20
I00
sbsg1579
g0
(g298
g2
Ntp1633
Rp1634
(dp1635
g11
I00
sg19
I01
sg37
F0.0
sg20
I00
sbsg1583
g0
(g298
g2
Ntp1636
Rp1637
(dp1638
g11
I00
sg19
I01
sg37
F6.0
sg20
I00
sbsg1587
g0
(g298
g2
Ntp1639
Rp1640
(dp1641
g11
I00
sg19
I01
sg37
F0.0
sg20
I00
sbsg38
(lp1642
g1567
ag1571
ag1575
ag1579
ag1583
ag1587
ag1592
asg1592
g0
(g298
g2
Ntp1643
Rp1644
(dp1645
g11
I00
sg19
I01
sg37
F0.0
sg20
I00
sbsbag0
(g28
g2
Ntp1646
Rp1647
(dp1648
g11
I00
sg19
I01
sg1567
g0
(g298
g2
Ntp1649
Rp1650
(dp1651
g11
I00
sg19
I01
sg37
F0.0
sg20
I00
sbsg20
I00
sg1571
g0
(g298
g2
Ntp1652
Rp1653
(dp1654
g11
I00
sg19
I01
sg37
F12.2999
sg20
I00
sbsg1575
g0
(g298
g2
Ntp1655
Rp1656
(dp1657
g11
I00
sg19
I01
sg37
F-2.19142
sg20
I00
sbsg1579
g0
(g298
g2
Ntp1658
Rp1659
(dp1660
g11
I00
sg19
I01
sg37
F0.0
sg20
I00
sbsg1583
g0
(g298
g2
Ntp1661
Rp1662
(dp1663
g11
I00
sg19
I01
sg37
F6.0
sg20
I00
sbsg1587
g0
(g298
g2
Ntp1664
Rp1665
(dp1666
g11
I00
sg19
I01
sg37
F0.0
sg20
I00
sbsg38
(lp1667
g1567
ag1571
ag1575
ag1579
ag1583
ag1587
ag1592
asg1592
g0
(g298
g2
Ntp1668
Rp1669
(dp1670
g11
I00
sg19
I01
sg37
F0.0
sg20
I00
sbsbatp1671
Rp1672
(dp1673
g11
I00
sg19
I01
sg20
I00
sg21
I1
sbsg1561
g0
(g1287
g14
(lp1674
g0
(g28
g2
Ntp1675
Rp1676
(dp1677
g11
I00
sg19
I01
sg20
I00
sS'slope'
p1678
g0
(g298
g2
Ntp1679
Rp1680
(dp1681
g11
I00
sg19
I01
sg37
F-3.178648
sg20
I00
sbsS'tmax'
p1682
g0
(g298
g2
Ntp1683
Rp1684
(dp1685
g11
I00
sg19
I01
sg37
F16.0
sg20
I00
sbsS'tzero'
p1686
g0
(g298
g2
Ntp1687
Rp1688
(dp1689
g11
I00
sg19
I01
sg37
F23.960177
sg20
I00
sbsg38
(lp1690
g1678
ag1682
ag1686
asbag0
(g28
g2
Ntp1691
Rp1692
(dp1693
g11
I00
sg19
I01
sg20
I00
sg1678
g0
(g298
g2
Ntp1694
Rp1695
(dp1696
g11
I00
sg19
I01
sg37
F-1.5610227
sg20
I00
sbsg1682
g0
(g298
g2
Ntp1697
Rp1698
(dp1699
g11
I00
sg19
I01
sg37
F10.0
sg20
I00
sbsg1686
g0
(g298
g2
Ntp1700
Rp1701
(dp1702
g11
I00
sg19
I01
sg37
F11.977461
sg20
I00
sbsg38
(lp1703
g1678
ag1682
ag1686
asbag0
(g28
g2
Ntp1704
Rp1705
(dp1706
g11
I00
sg19
I01
sg20
I00
sg1678
g0
(g298
g2
Ntp1707
Rp1708
(dp1709
g11
I00
sg19
I01
sg37
F-1.075824
sg20
I00
sbsg1682
g0
(g298
g2
Ntp1710
Rp1711
(dp1712
g11
I00
sg19
I01
sg37
F6.25
sg20
I00
sbsg1686
g0
(g298
g2
Ntp1713
Rp1714
(dp1715
g11
I00
sg19
I01
sg37
F9.109694
sg20
I00
sbsg38
(lp1716
g1678
ag1682
ag1686
asbatp1717
Rp1718
(dp1719
g11
I00
sg19
I01
sg20
I00
sg21
I1
sbsg20
I00
sg40
I23
sg69
S'/cvmfs/cms.cern.ch/slc7_amd64_gcc700/cms/cmssw/CMSSW_10_4_0/python/CalibCalorimetry/HcalPlugins/HcalTimeSlew_cff.py'
p1720
sg1562
g0
(g164
g2
Ntp1721
Rp1722
(dp1723
g11
I00
sg19
I01
sg37
S'HBHE'
p1724
sg20
I00
sbsg267
g1555
sg46
g1555
sbssg328
g284
sg632
g623
sg548
g405
sg804
g806
sg497
g623
sS'CastorDbProducer'
p1725
g0
(g634
g2
Ntp1726
Rp1727
(dp1728
g38
(lp1729
g1562
asg11
I00
sg1562
g0
(g164
g2
Ntp1730
Rp1731
(dp1732
g11
I00
sg19
I01
sg37
g316
sg20
I00
sbsg20
I00
sg40
I53
sg69
g70
sg267
g1725
sg46
g1725
sbsS'_Process__vpsets'
p1733
(dp1734
sS'_Process__name'
p1735
S'MiniTree'
p1736
sg1555
g1557
sS'es_prefer_hcalHardcode'
p1737
g0
(cFWCore.ParameterSet.Modules
ESPrefer
p1738
g2
Ntp1739
Rp1740
(dp1741
g38
(lp1742
sg11
I00
sg20
I00
sS'_targetLabel'
p1743
g839
sg40
I89
sg69
g70
sg267
g1737
sg46
g1058
sbsg540
g517
sS'_Process__subProcesses'
p1744
(lp1745
sS'_cloneToObjectDict'
p1746
(dp1747
I140033177469776
g417
sI140033177469840
g398
sI140033177355472
g1740
sI140033177358224
g0
(g634
g2
Ntp1748
Rp1749
(dp1750
g38
(lp1751
S'printDebug'
p1752
ag1562
aS'APVGain'
p1753
aS'AutomaticNormalization'
p1754
asg11
I00
sg1562
g0
(g164
g2
Ntp1755
Rp1756
(dp1757
g11
I00
sg19
I01
sg37
g316
sg20
I00
sbsg20
I00
sg1754
g0
(g33
g2
Ntp1758
Rp1759
(dp1760
g11
I00
sg19
I01
sg37
I00
sg20
I00
sbsg40
I53
sg1752
g0
(g33
g2
Ntp1761
Rp1762
(dp1763
g11
I00
sg19
I00
sg37
I00
sg20
I00
sbsg69
g70
sg1753
g0
(g1287
g14
(lp1764
g0
(g28
g2
Ntp1765
Rp1766
(dp1767
g11
I00
sg19
I01
sg20
I00
sS'Label'
p1768
g0
(g164
g2
Ntp1769
Rp1770
(dp1771
g11
I00
sg19
I00
sg37
g316
sg20
I00
sbsS'Record'
p1772
g0
(g164
g2
Ntp1773
Rp1774
(dp1775
g11
I00
sg19
I01
sg37
S'SiStripApvGainRcd'
p1776
sg20
I00
sbsS'NormalizationFactor'
p1777
g0
(g298
g2
Ntp1778
Rp1779
(dp1780
g11
I00
sg19
I00
sg37
F1.0
sg20
I00
sbsg38
(lp1781
g1772
ag1777
ag1768
asbag0
(g28
g2
Ntp1782
Rp1783
(dp1784
g11
I00
sg19
I01
sg20
I00
sg1768
g0
(g164
g2
Ntp1785
Rp1786
(dp1787
g11
I00
sg19
I00
sg37
g316
sg20
I00
sbsg1772
g0
(g164
g2
Ntp1788
Rp1789
(dp1790
g11
I00
sg19
I01
sg37
S'SiStripApvGain2Rcd'
p1791
sg20
I00
sbsg1777
g0
(g298
g2
Ntp1792
Rp1793
(dp1794
g11
I00
sg19
I00
sg37
F1.0
sg20
I00
sbsg38
(lp1795
g1772
ag1777
ag1768
asbatp1796
Rp1797
(dp1798
g11
I00
sg19
I01
sg20
I00
sg21
I1
sbsg267
S'siStripGainESProducer'
p1799
sg46
S'SiStripGainESProducer'
p1800
sbsI140033176753680
g391
sI140033177753104
g711
sI140033177439504
g439
sI140033177329616
g842
sI140033177437392
g0
(g634
g2
Ntp1801
Rp1802
(dp1803
g38
(lp1804
g1562
aS'PrintDebugOutput'
p1805
aS'ThresholdForReducedGranularity'
p1806
aS'UseEmptyRunInfo'
p1807
aS'ReduceGranularity'
p1808
aS'ListOfRecordToMerge'
p1809
asg11
I00
sg1562
g0
(g164
g2
Ntp1810
Rp1811
(dp1812
g11
I00
sg19
I01
sg37
g316
sg20
I00
sbsg20
I01
sg40
I53
sg69
g70
sg1806
g0
(g298
g2
Ntp1813
Rp1814
(dp1815
g11
I00
sg19
I01
sg37
F0.3
sg20
I00
sbsg267
S'siStripQualityESProducer'
p1816
sg1807
g0
(g33
g2
Ntp1817
Rp1818
(dp1819
g11
I00
sg19
I01
sg37
I00
sg20
I00
sbsg1808
g0
(g33
g2
Ntp1820
Rp1821
(dp1822
g11
I00
sg19
I01
sg37
I00
sg20
I00
sbsg1809
g0
(g1287
g14
(lp1823
g0
(g28
g2
Ntp1824
Rp1825
(dp1826
g11
I00
sg19
I01
sg20
I00
sg724
g0
(g164
g2
Ntp1827
Rp1828
(dp1829
g11
I00
sg19
I01
sg37
S'SiStripDetVOffRcd'
p1830
sg20
I00
sbsS'tag'
p1831
g0
(g164
g2
Ntp1832
Rp1833
(dp1834
g11
I00
sg19
I01
sg37
g316
sg20
I00
sbsg38
(lp1835
g724
ag1831
asbag0
(g28
g2
Ntp1836
Rp1837
(dp1838
g11
I00
sg19
I01
sg20
I00
sg724
g0
(g164
g2
Ntp1839
Rp1840
(dp1841
g11
I00
sg19
I01
sg37
S'SiStripDetCablingRcd'
p1842
sg20
I00
sbsg1831
g0
(g164
g2
Ntp1843
Rp1844
(dp1845
g11
I00
sg19
I01
sg37
g316
sg20
I00
sbsg38
(lp1846
g724
ag1831
asbag0
(g28
g2
Ntp1847
Rp1848
(dp1849
g11
I00
sg19
I01
sg20
I00
sg724
g0
(g164
g2
Ntp1850
Rp1851
(dp1852
g11
I00
sg19
I01
sg37
S'RunInfoRcd'
p1853
sg20
I00
sbsg1831
g0
(g164
g2
Ntp1854
Rp1855
(dp1856
g11
I00
sg19
I01
sg37
g316
sg20
I00
sbsg38
(lp1857
g724
ag1831
asbag0
(g28
g2
Ntp1858
Rp1859
(dp1860
g11
I00
sg19
I01
sg20
I00
sg724
g0
(g164
g2
Ntp1861
Rp1862
(dp1863
g11
I00
sg19
I01
sg37
S'SiStripBadChannelRcd'
p1864
sg20
I00
sbsg1831
g0
(g164
g2
Ntp1865
Rp1866
(dp1867
g11
I00
sg19
I01
sg37
g316
sg20
I00
sbsg38
(lp1868
g724
ag1831
asbag0
(g28
g2
Ntp1869
Rp1870
(dp1871
g11
I00
sg19
I01
sg20
I00
sg724
g0
(g164
g2
Ntp1872
Rp1873
(dp1874
g11
I00
sg19
I01
sg37
S'SiStripBadFiberRcd'
p1875
sg20
I00
sbsg1831
g0
(g164
g2
Ntp1876
Rp1877
(dp1878
g11
I00
sg19
I01
sg37
g316
sg20
I00
sbsg38
(lp1879
g724
ag1831
asbag0
(g28
g2
Ntp1880
Rp1881
(dp1882
g11
I00
sg19
I01
sg20
I00
sg724
g0
(g164
g2
Ntp1883
Rp1884
(dp1885
g11
I00
sg19
I01
sg37
S'SiStripBadModuleRcd'
p1886
sg20
I00
sbsg1831
g0
(g164
g2
Ntp1887
Rp1888
(dp1889
g11
I00
sg19
I01
sg37
g316
sg20
I00
sbsg38
(lp1890
g724
ag1831
asbag0
(g28
g2
Ntp1891
Rp1892
(dp1893
g11
I00
sg19
I01
sg20
I00
sg724
g0
(g164
g2
Ntp1894
Rp1895
(dp1896
g11
I00
sg19
I01
sg37
S'SiStripBadStripRcd'
p1897
sg20
I00
sbsg1831
g0
(g164
g2
Ntp1898
Rp1899
(dp1900
g11
I00
sg19
I01
sg37
g316
sg20
I00
sbsg38
(lp1901
g724
ag1831
asbatp1902
Rp1903
(dp1904
g11
I00
sg19
I01
sg20
I00
sg21
I1
sbsg46
S'SiStripQualityESProducer'
p1905
sg1805
g0
(g33
g2
Ntp1906
Rp1907
(dp1908
g11
I00
sg19
I01
sg37
I00
sg20
I00
sbsbsI140033177753424
g782
sI140033177753552
g636
sI140033177237520
g405
sI140033177754896
g0
(g634
g2
Ntp1909
Rp1910
(dp1911
g38
(lp1912
S'PreFilter'
p1913
ag640
aS'NSigmaInside'
p1914
asg11
I00
sg20
I00
sg69
g70
sg640
g0
(g164
g2
Ntp1915
Rp1916
(dp1917
g11
I00
sg19
I01
sg37
S'StandardMatcher'
p1918
sg20
I00
sbsg1913
g0
(g33
g2
Ntp1919
Rp1920
(dp1921
g11
I00
sg19
I01
sg37
I00
sg20
I00
sbsg40
I53
sg1914
g0
(g298
g2
Ntp1922
Rp1923
(dp1924
g11
I00
sg19
I01
sg37
F3.0
sg20
I00
sbsg267
S'SiStripRecHitMatcherESProducer'
p1925
sg46
g1925
sbsI140033177356624
g1727
sI140033178008016
g815
sI140033177254416
g1557
sI140033177438800
g255
sI140033177438864
g344
sI140033177238224
g0
(g282
g2
Ntp1926
Rp1927
(dp1928
g38
(lp1929
g287
ag288
ag292
ag289
ag293
ag290
ag294
ag295
ag296
ag297
asg11
I00
sg287
g0
(g298
g2
Ntp1930
Rp1931
(dp1932
g11
I00
sg19
I01
sg37
F1.0
sg20
I00
sbsg20
I00
sg69
S'/cvmfs/cms.cern.ch/slc7_amd64_gcc700/cms/cmssw/CMSSW_10_4_0/python/RecoMET/METFilters/BadChargedCandidateFilter_cfi.py'
p1933
sg289
g0
(g164
g2
Ntp1934
Rp1935
(dp1936
g11
I00
sg19
I01
sg37
g353
sg20
I00
sbsg288
g0
(g309
g2
Ntp1937
Rp1938
(dp1939
g11
I00
sg19
I01
sg20
I00
sg313
S'particleFlow'
p1940
sg315
g316
sg317
g316
sbsg290
g0
(g298
g2
Ntp1941
Rp1942
(dp1943
g11
I00
sg19
I01
sg37
F0.3
sg20
I00
sbsg40
I14
sg297
g0
(g298
g2
Ntp1944
Rp1945
(dp1946
g11
I00
sg19
I01
sg37
F1e-05
sg20
I00
sbsg292
g0
(g33
g2
Ntp1947
Rp1948
(dp1949
g11
I00
sg19
I01
sg37
I00
sg20
I00
sbsg267
Nsg293
g0
(g298
g2
Ntp1950
Rp1951
(dp1952
g11
I00
sg19
I01
sg37
F1e-05
sg20
I00
sbsg294
g0
(g298
g2
Ntp1953
Rp1954
(dp1955
g11
I00
sg19
I01
sg37
F2.0
sg20
I00
sbsg295
g0
(g298
g2
Ntp1956
Rp1957
(dp1958
g11
I00
sg19
I01
sg37
F100.0
sg20
I00
sbsg296
g0
(g309
g2
Ntp1959
Rp1960
(dp1961
g11
I00
sg19
I01
sg20
I00
sg313
g296
sg315
g316
sg317
g316
sbsg46
g342
sbsI140033177438992
g478
sI140033177439760
g585
sI140033177239504
g284
sI140033176753488
g273
sI140033177255120
g756
sI140033177255184
g824
sI140033177752400
g0
(g634
g2
Ntp1962
Rp1963
(dp1964
g38
(lp1965
g714
aS'LorentzAngleDeconvMode'
p1966
aS'LorentzAnglePeakMode'
p1967
asg11
I00
sg20
I00
sg40
I53
sg69
g70
sg714
g0
(g28
g2
Ntp1968
Rp1969
(dp1970
g11
I00
sg19
I01
sg20
I00
sg720
g0
(g164
g2
Ntp1971
Rp1972
(dp1973
g11
I00
sg19
I00
sg37
g316
sg20
I00
sbsg724
g0
(g164
g2
Ntp1974
Rp1975
(dp1976
g11
I00
sg19
I01
sg37
g728
sg20
I00
sbsg38
(lp1977
g724
ag720
asbsg267
S'siStripLorentzAngleDepESProducer'
p1978
sg1967
g0
(g28
g2
Ntp1979
Rp1980
(dp1981
g11
I00
sg19
I01
sg20
I00
sg720
g0
(g164
g2
Ntp1982
Rp1983
(dp1984
g11
I00
sg19
I00
sg37
g736
sg20
I00
sbsg724
g0
(g164
g2
Ntp1985
Rp1986
(dp1987
g11
I00
sg19
I01
sg37
S'SiStripLorentzAngleRcd'
p1988
sg20
I00
sbsg38
(lp1989
g724
ag720
asbsg46
S'SiStripLorentzAngleDepESProducer'
p1990
sg1966
g0
(g28
g2
Ntp1991
Rp1992
(dp1993
g11
I00
sg19
I01
sg20
I00
sg720
g0
(g164
g2
Ntp1994
Rp1995
(dp1996
g11
I00
sg19
I00
sg37
g748
sg20
I00
sbsg724
g0
(g164
g2
Ntp1997
Rp1998
(dp1999
g11
I00
sg19
I01
sg37
g1988
sg20
I00
sbsg38
(lp2000
g724
ag720
asbsbsI140033177755024
g0
(g634
g2
Ntp2001
Rp2002
(dp2003
g38
(lp2004
sg11
I00
sg20
I00
sg40
I53
sg69
g70
sg267
S'sistripconn'
p2005
sg46
S'SiStripConnectivity'
p2006
sbsI140033177239056
g0
(g282
g2
Ntp2007
Rp2008
(dp2009
g38
(lp2010
g287
ag288
ag289
ag293
ag291
ag292
ag290
ag294
ag295
ag296
ag297
asg11
I00
sg287
g0
(g298
g2
Ntp2011
Rp2012
(dp2013
g11
I00
sg19
I01
sg37
F1.0
sg20
I00
sbsg20
I00
sg69
S'/cvmfs/cms.cern.ch/slc7_amd64_gcc700/cms/cmssw/CMSSW_10_4_0/python/RecoMET/METFilters/BadPFMuonFilter_cfi.py'
p2014
sg289
g0
(g164
g2
Ntp2015
Rp2016
(dp2017
g11
I00
sg19
I01
sg37
g308
sg20
I00
sbsg288
g0
(g309
g2
Ntp2018
Rp2019
(dp2020
g11
I00
sg19
I01
sg20
I00
sg313
g1940
sg315
g316
sg317
g316
sbsg290
g0
(g298
g2
Ntp2021
Rp2022
(dp2023
g11
I00
sg19
I01
sg37
F0.3
sg20
I00
sbsg297
g0
(g298
g2
Ntp2024
Rp2025
(dp2026
g11
I00
sg19
I01
sg37
F0.0
sg20
I00
sbsg40
I15
sg291
g0
(g103
g2
Ntp2027
Rp2028
(dp2029
g11
I00
sg19
I01
sg37
I14
sg20
I00
sbsg292
g0
(g33
g2
Ntp2030
Rp2031
(dp2032
g11
I00
sg19
I01
sg37
I00
sg20
I00
sbsg267
Nsg293
g0
(g298
g2
Ntp2033
Rp2034
(dp2035
g11
I00
sg19
I01
sg37
F0.001
sg20
I00
sbsg294
g0
(g298
g2
Ntp2036
Rp2037
(dp2038
g11
I00
sg19
I01
sg37
F2.0
sg20
I00
sbsg295
g0
(g298
g2
Ntp2039
Rp2040
(dp2041
g11
I00
sg19
I01
sg37
I100
sg20
I00
sbsg296
g0
(g309
g2
Ntp2042
Rp2043
(dp2044
g11
I00
sg19
I01
sg20
I00
sg313
g296
sg315
g316
sg317
g316
sbsg46
g342
sbsI140033177722960
g806
sI140033177440208
g517
sI140033177436304
g0
(g634
g2
Ntp2045
Rp2046
(dp2047
g38
(lp2048
g1809
asg11
I00
sg20
I01
sg40
I53
sg69
g70
sg1809
g0
(g1287
g14
(lp2049
g0
(g28
g2
Ntp2050
Rp2051
(dp2052
g11
I00
sg19
I01
sg20
I00
sg724
g0
(g164
g2
Ntp2053
Rp2054
(dp2055
g11
I00
sg19
I01
sg37
S'SiPixelQualityFromDbRcd'
p2056
sg20
I00
sbsg1831
g0
(g164
g2
Ntp2057
Rp2058
(dp2059
g11
I00
sg19
I01
sg37
g316
sg20
I00
sbsg38
(lp2060
g724
ag1831
asbag0
(g28
g2
Ntp2061
Rp2062
(dp2063
g11
I00
sg19
I01
sg20
I00
sg724
g0
(g164
g2
Ntp2064
Rp2065
(dp2066
g11
I00
sg19
I01
sg37
S'SiPixelDetVOffRcd'
p2067
sg20
I00
sbsg1831
g0
(g164
g2
Ntp2068
Rp2069
(dp2070
g11
I00
sg19
I01
sg37
g316
sg20
I00
sbsg38
(lp2071
g724
ag1831
asbatp2072
Rp2073
(dp2074
g11
I00
sg19
I01
sg20
I00
sg21
I1
sbsg267
S'siPixelQualityESProducer'
p2075
sg46
S'SiPixelQualityESProducer'
p2076
sbsI140033177469456
g550
sI140033187148368
g1483
sI140033177723536
g799
ssS'schedule'
p2077
g0
(cFWCore.ParameterSet.SequenceTypes
Schedule
p2078
g14
(lp2079
g391
atp2080
Rp2081
(dp2082
g11
I00
sg19
I01
sg20
I00
sg379
g0
(g380
g2
Ntp2083
Rp2084
(dp2085
g384
(dp2086
sg386
(lp2087
Nag2087
ag2087
asbsbsg1799
g1749
sg576
g550
sg594
g585
sg466
g439
sg2005
g2002
sS'_Process__esprefers'
p2088
(dp2089
g1737
g1740
ssg1925
g1910
sS'_Process__schedule'
p2090
g2081
sg1816
g1802
sS'_Process__outputmodules'
p2091
(dp2092
sS'_Process__analyzers'
p2093
(dp2094
g548
g405
ssS'_Process__InExtendCall'
p2095
I00
sg366
g344
sg1978
g1963
sS'_Process__modifiers'
p2096
(tsS'_Process__producers'
p2097
(dp2098
sg2075
g2046
sg1481
g1483
sS'_Process__filters'
p2099
(dp2100
g328
g284
sg366
g344
sg401
g398
ssg839
g842
sS'_Process__looper'
p2101
NsS'_Process__endpaths'
p2102
g0
(cFWCore.ParameterSet.DictTypes
SortedKeysDict
p2103
c__builtin__
dict
p2104
(dp2105
tp2106
Rp2107
(dp2108
S'list'
p2109
(lp2110
sbsS'_Process__esproducers'
p2111
(dp2112
g1978
g1963
sg780
g782
sg1925
g1910
sg2075
g2046
sg822
g824
sg1799
g1749
sg2005
g2002
sg633
g636
sg1725
g1727
sg797
g799
sg709
g711
sg1816
g1802
ssS'_Process__tasks'
p2113
(dp2114
sg401
g398
sS'_Process__paths'
p2115
g0
(g2103
g2104
(dp2116
g388
g391
stp2117
Rp2118
(dp2119
g2109
(lp2120
g388
asbsg515
g478
sg437
g417
sS'_Process__partialschedules'
p2121
(dp2122
sg813
g815
sS'_Process__isStrict'
p2123
I00
sb.