ccopy_reg
_reconstructor
p0
(cFWCore.ParameterSet.Config
Process
p1
c__builtin__
object
p2
Ntp3
Rp4
(dp5
S'MessageLogger'
p6
g0
(cFWCore.ParameterSet.Modules
Service
p7
g2
Ntp8
Rp9
(dp10
S'_isFrozen'
p11
I00
sS'suppressInfo'
p12
g0
(cFWCore.ParameterSet.Types
vstring
p13
c__builtin__
list
p14
(lp15
tp16
Rp17
(dp18
g11
I00
sS'_ParameterTypeBase__isTracked'
p19
I00
sS'_isModified'
p20
I00
sS'_nPerLine'
p21
I1
sbsS'suppressDebug'
p22
g0
(g13
g14
(lp23
tp24
Rp25
(dp26
g11
I00
sg19
I00
sg20
I00
sg21
I1
sbsS'cout'
p27
g0
(cFWCore.ParameterSet.Types
PSet
p28
g2
Ntp29
Rp30
(dp31
g11
I00
sg19
I00
sS'placeholder'
p32
g0
(cFWCore.ParameterSet.Types
bool
p33
g2
Ntp34
Rp35
(dp36
g11
I00
sg19
I00
sS'_value'
p37
I01
sg20
I00
sbsg20
I00
sS'_Parameterizable__parameterNames'
p38
(lp39
g32
asbsS'_lineNumber'
p40
I11
sS'debugModules'
p41
g0
(g13
g14
(lp42
tp43
Rp44
(dp45
g11
I00
sg19
I00
sg20
I00
sg21
I1
sbsS'_TypedParameterizable__type'
p46
g6
sS'fwkJobReports'
p47
g0
(g13
g14
(lp48
S'FrameworkJobReport'
p49
atp50
Rp51
(dp52
g11
I00
sg19
I00
sg20
I00
sg21
I1
sbsg38
(lp53
g12
aS'debugs'
p54
ag22
ag27
aS'cerr_stats'
p55
aS'warnings'
p56
aS'default'
p57
aS'statistics'
p58
aS'cerr'
p59
ag49
aS'suppressWarning'
p60
aS'errors'
p61
aS'destinations'
p62
ag41
aS'infos'
p63
aS'categories'
p64
ag47
asg58
g0
(g13
g14
(lp65
g55
atp66
Rp67
(dp68
g11
I00
sg19
I00
sg20
I00
sg21
I1
sbsS'_filename'
p69
S'/cvmfs/cms.cern.ch/slc7_amd64_gcc700/cms/cmssw/CMSSW_10_4_0/python/FWCore/ParameterSet/Modules.py'
p70
sg62
g0
(g13
g14
(lp71
g56
ag61
ag63
ag54
ag27
ag59
atp72
Rp73
(dp74
g11
I00
sg19
I00
sg20
I00
sg21
I1
sbsg54
g0
(g28
g2
Ntp75
Rp76
(dp77
g11
I00
sg19
I00
sg32
g0
(g33
g2
Ntp78
Rp79
(dp80
g11
I00
sg19
I00
sg37
I01
sg20
I00
sbsg20
I00
sg38
(lp81
g32
asbsg56
g0
(g28
g2
Ntp82
Rp83
(dp84
g11
I00
sg19
I00
sg32
g0
(g33
g2
Ntp85
Rp86
(dp87
g11
I00
sg19
I00
sg37
I01
sg20
I00
sbsg20
I00
sg38
(lp88
g32
asbsg61
g0
(g28
g2
Ntp89
Rp90
(dp91
g11
I00
sg19
I00
sg32
g0
(g33
g2
Ntp92
Rp93
(dp94
g11
I00
sg19
I00
sg37
I01
sg20
I00
sbsg20
I00
sg38
(lp95
g32
asbsg49
g0
(g28
g2
Ntp96
Rp97
(dp98
g11
I00
sg19
I00
sg20
I00
sg57
g0
(g28
g2
Ntp99
Rp100
(dp101
g11
I00
sg19
I00
sS'limit'
p102
g0
(cFWCore.ParameterSet.Types
int32
p103
g2
Ntp104
Rp105
(dp106
g11
I00
sg19
I00
sg37
I0
sg20
I00
sbsg20
I00
sg38
(lp107
g102
asbsS'FwkJob'
p108
g0
(g28
g2
Ntp109
Rp110
(dp111
g11
I00
sg19
I00
sg20
I00
sg102
g0
(g103
g2
Ntp112
Rp113
(dp114
g11
I00
sg19
I00
sg37
I10000000
sg20
I00
sbsg38
(lp115
S'optionalPSet'
p116
ag102
asg116
g0
(g33
g2
Ntp117
Rp118
(dp119
g11
I00
sg19
I00
sg37
I01
sg20
I00
sbsbsg38
(lp120
g57
ag116
ag108
asg116
g0
(g33
g2
Ntp121
Rp122
(dp123
g11
I00
sg19
I00
sg37
I01
sg20
I00
sbsbsg60
g0
(g13
g14
(lp124
tp125
Rp126
(dp127
g11
I00
sg19
I00
sg20
I00
sg21
I1
sbsg63
g0
(g28
g2
Ntp128
Rp129
(dp130
g11
I00
sg19
I00
sg20
I00
sS'Root_NoDictionary'
p131
g0
(g28
g2
Ntp132
Rp133
(dp134
g11
I00
sg19
I00
sg20
I00
sg102
g0
(g103
g2
Ntp135
Rp136
(dp137
g11
I00
sg19
I00
sg37
I0
sg20
I00
sbsg38
(lp138
g116
ag102
asg116
g0
(g33
g2
Ntp139
Rp140
(dp141
g11
I00
sg19
I00
sg37
I01
sg20
I00
sbsbsg38
(lp142
g116
ag131
ag32
asg116
g0
(g33
g2
Ntp143
Rp144
(dp145
g11
I00
sg19
I00
sg37
I01
sg20
I00
sbsg32
g0
(g33
g2
Ntp146
Rp147
(dp148
g11
I00
sg19
I00
sg37
I01
sg20
I00
sbsbsg64
g0
(g13
g14
(lp149
g108
aS'FwkReport'
p150
aS'FwkSummary'
p151
ag131
atp152
Rp153
(dp154
g11
I00
sg19
I00
sg20
I00
sg21
I1
sbsg20
I00
sg55
g0
(g28
g2
Ntp155
Rp156
(dp157
g11
I00
sg19
I00
sg20
I00
sg116
g0
(g33
g2
Ntp158
Rp159
(dp160
g11
I00
sg19
I00
sg37
I01
sg20
I00
sbsg38
(lp161
S'threshold'
p162
aS'output'
p163
ag116
asg162
g0
(cFWCore.ParameterSet.Types
string
p164
g2
Ntp165
Rp166
(dp167
g11
I00
sg19
I00
sg37
S'WARNING'
p168
sg20
I00
sbsg163
g0
(g164
g2
Ntp169
Rp170
(dp171
g11
I00
sg19
I00
sg37
g59
sg20
I00
sbsbsg57
g0
(g28
g2
Ntp172
Rp173
(dp174
g11
I00
sg19
I00
sg20
I00
sg38
(lp175
sbsS'_inProcess'
p176
I01
sg59
g0
(g28
g2
Ntp177
Rp178
(dp179
g11
I00
sg19
I00
sS'noTimeStamps'
p180
g0
(g33
g2
Ntp181
Rp182
(dp183
g11
I00
sg19
I00
sg37
I00
sg20
I00
sbsg150
g0
(g28
g2
Ntp184
Rp185
(dp186
g11
I00
sg19
I00
sg20
I01
sS'reportEvery'
p187
g0
(g103
g2
Ntp188
Rp189
(dp190
g11
I00
sg19
I00
sg37
I100
sg20
I01
sbsg102
g0
(g103
g2
Ntp191
Rp192
(dp193
g11
I00
sg19
I00
sg37
I10000000
sg20
I00
sbsg38
(lp194
g187
ag116
ag102
asg116
g0
(g33
g2
Ntp195
Rp196
(dp197
g11
I00
sg19
I00
sg37
I01
sg20
I00
sbsbsg20
I00
sg57
g0
(g28
g2
Ntp198
Rp199
(dp200
g11
I00
sg19
I00
sg102
g0
(g103
g2
Ntp201
Rp202
(dp203
g11
I00
sg19
I00
sg37
I10000000
sg20
I00
sbsg20
I00
sg38
(lp204
g102
asbsg131
g0
(g28
g2
Ntp205
Rp206
(dp207
g11
I00
sg19
I00
sg20
I00
sg102
g0
(g103
g2
Ntp208
Rp209
(dp210
g11
I00
sg19
I00
sg37
I0
sg20
I00
sbsg38
(lp211
g116
ag102
asg116
g0
(g33
g2
Ntp212
Rp213
(dp214
g11
I00
sg19
I00
sg37
I01
sg20
I00
sbsbsS'INFO'
p215
g0
(g28
g2
Ntp216
Rp217
(dp218
g11
I00
sg19
I00
sg102
g0
(g103
g2
Ntp219
Rp220
(dp221
g11
I00
sg19
I00
sg37
I0
sg20
I00
sbsg20
I00
sg38
(lp222
g102
asbsg116
g0
(g33
g2
Ntp223
Rp224
(dp225
g11
I00
sg19
I00
sg37
I01
sg20
I00
sbsg108
g0
(g28
g2
Ntp226
Rp227
(dp228
g11
I00
sg19
I00
sg20
I00
sg102
g0
(g103
g2
Ntp229
Rp230
(dp231
g11
I00
sg19
I00
sg37
I0
sg20
I00
sbsg38
(lp232
g116
ag102
asg116
g0
(g33
g2
Ntp233
Rp234
(dp235
g11
I00
sg19
I00
sg37
I01
sg20
I00
sbsbsg151
g0
(g28
g2
Ntp236
Rp237
(dp238
g11
I00
sg19
I00
sg20
I00
sg187
g0
(g103
g2
Ntp239
Rp240
(dp241
g11
I00
sg19
I00
sg37
I1
sg20
I00
sbsg102
g0
(g103
g2
Ntp242
Rp243
(dp244
g11
I00
sg19
I00
sg37
I10000000
sg20
I00
sbsg38
(lp245
g187
ag116
ag102
asg116
g0
(g33
g2
Ntp246
Rp247
(dp248
g11
I00
sg19
I00
sg37
I01
sg20
I00
sbsbsg38
(lp249
g215
ag180
ag150
ag57
ag131
ag162
ag108
ag151
ag116
asg162
g0
(g164
g2
Ntp250
Rp251
(dp252
g11
I00
sg19
I00
sg37
g215
sg20
I00
sbsbsbsS'BaseMCTruthSet'
p253
g0
(g28
g2
Ntp254
Rp255
(dp256
g11
I00
sg19
I01
sg20
I01
sS'isData'
p257
g0
(g33
g2
Ntp258
Rp259
(dp260
g11
I00
sg19
I01
sg37
I00
sg20
I00
sbsS'sampleCode'
p261
g0
(g164
g2
Ntp262
Rp263
(dp264
g11
I00
sg19
I01
sg37
S'ExLepMuMuZ_M4500'
p265
sg20
I00
sbsg38
(lp266
g257
ag261
asS'_Labelable__label'
p267
g253
sbsS'_Process__sequences'
p268
(dp269
S'metFilterSequence'
p270
g0
(cFWCore.ParameterSet.SequenceTypes
Sequence
p271
g2
Ntp272
Rp273
(dp274
g11
I00
sS'_seq'
p275
g0
(cFWCore.ParameterSet.SequenceTypes
_SequenceCollection
p276
g2
Ntp277
Rp278
(dp279
S'_collection'
p280
(lp281
g0
(cFWCore.ParameterSet.Modules
EDFilter
p282
g2
Ntp283
Rp284
(dp285
g38
(lp286
S'innerTrackRelErr'
p287
aS'PFCandidates'
p288
aS'filterType'
p289
aS'segmentCompatibility'
p290
aS'algo'
p291
aS'taggingMode'
p292
aS'maxDR'
p293
aS'minMuonTrackRelErr'
p294
aS'minMuonPt'
p295
aS'muons'
p296
aS'minPtDiffRel'
p297
asg11
I00
sg287
g0
(cFWCore.ParameterSet.Types
double
p298
g2
Ntp299
Rp300
(dp301
g11
I00
sg19
I01
sg37
F1.0
sg20
I00
sbsg20
I01
sg295
g0
(g298
g2
Ntp302
Rp303
(dp304
g11
I00
sg19
I01
sg37
I100
sg20
I00
sbsg289
g0
(g164
g2
Ntp305
Rp306
(dp307
g11
I00
sg19
I01
sg37
S'BadPFMuon'
p308
sg20
I00
sbsg288
g0
(cFWCore.ParameterSet.Types
InputTag
p309
g2
Ntp310
Rp311
(dp312
g11
I00
sg19
I01
sg20
I00
sS'_InputTag__moduleLabel'
p313
S'packedPFCandidates'
p314
sS'_InputTag__processName'
p315
S''
p316
sS'_InputTag__productInstance'
p317
g316
sbsg297
g0
(g298
g2
Ntp318
Rp319
(dp320
g11
I00
sg19
I01
sg37
F0.0
sg20
I00
sbsg69
S'/afs/cern.ch/work/s/sthakur/xRavindra/MiniTree2017Data/CMSSW_10_4_0/python/ExLep2017Tree/Selection/EventSelectors_cfi.py'
p321
sg40
I19
sg291
g0
(g103
g2
Ntp322
Rp323
(dp324
g11
I00
sg19
I01
sg37
I14
sg20
I00
sbsg292
g0
(g33
g2
Ntp325
Rp326
(dp327
g11
I00
sg19
I01
sg37
I01
sg20
I01
sbsg267
S'BadPFMuonFilter'
p328
sg290
g0
(g298
g2
Ntp329
Rp330
(dp331
g11
I00
sg19
I01
sg37
F0.3
sg20
I00
sbsg294
g0
(g298
g2
Ntp332
Rp333
(dp334
g11
I00
sg19
I01
sg37
F2.0
sg20
I00
sbsg293
g0
(g298
g2
Ntp335
Rp336
(dp337
g11
I00
sg19
I01
sg37
F0.001
sg20
I00
sbsg296
g0
(g309
g2
Ntp338
Rp339
(dp340
g11
I00
sg19
I01
sg20
I00
sg313
S'slimmedMuons'
p341
sg315
g316
sg317
g316
sbsg46
S'BadParticleFilter'
p342
sbag0
(g282
g2
Ntp343
Rp344
(dp345
g38
(lp346
g287
ag288
ag292
ag289
ag293
ag290
ag294
ag295
ag296
ag297
asg11
I00
sg287
g0
(g298
g2
Ntp347
Rp348
(dp349
g11
I00
sg19
I01
sg37
F1.0
sg20
I00
sbsg20
I01
sg69
g321
sg289
g0
(g164
g2
Ntp350
Rp351
(dp352
g11
I00
sg19
I01
sg37
S'BadChargedCandidate'
p353
sg20
I00
sbsg288
g0
(g309
g2
Ntp354
Rp355
(dp356
g11
I00
sg19
I01
sg20
I00
sg313
g314
sg315
g316
sg317
g316
sbsg290
g0
(g298
g2
Ntp357
Rp358
(dp359
g11
I00
sg19
I01
sg37
F0.3
sg20
I00
sbsg40
I15
sg297
g0
(g298
g2
Ntp360
Rp361
(dp362
g11
I00
sg19
I01
sg37
F1e-05
sg20
I00
sbsg292
g0
(g33
g2
Ntp363
Rp364
(dp365
g11
I00
sg19
I01
sg37
I01
sg20
I01
sbsg267
S'BadChargedCandidateFilter'
p366
sg293
g0
(g298
g2
Ntp367
Rp368
(dp369
g11
I00
sg19
I01
sg37
F1e-05
sg20
I00
sbsg294
g0
(g298
g2
Ntp370
Rp371
(dp372
g11
I00
sg19
I01
sg37
F2.0
sg20
I00
sbsg295
g0
(g298
g2
Ntp373
Rp374
(dp375
g11
I00
sg19
I01
sg37
F100.0
sg20
I00
sbsg296
g0
(g309
g2
Ntp376
Rp377
(dp378
g11
I00
sg19
I01
sg20
I00
sg313
g341
sg315
g316
sg317
g316
sbsg46
g342
sbasbsg267
g270
sg20
I00
sS'_tasks'
p379
g0
(cFWCore.ParameterSet.OrderedSet
OrderedSet
p380
g2
Ntp381
Rp382
(dp383
S'map'
p384
(dp385
sS'end'
p386
(lp387
Nag387
ag387
asbsbssS'p'
p388
g0
(cFWCore.ParameterSet.SequenceTypes
Path
p389
g2
Ntp390
Rp391
(dp392
g11
I00
sg275
g0
(g276
g2
Ntp393
Rp394
(dp395
g280
(lp396
g0
(g282
g2
Ntp397
Rp398
(dp399
g38
(lp400
sg11
I00
sg20
I00
sg40
I4
sg69
g321
sg267
S'allEventsFilter'
p401
sg46
S'AllEventsFilter'
p402
sbag273
ag0
(cFWCore.ParameterSet.Modules
EDAnalyzer
p403
g2
Ntp404
Rp405
(dp406
g38
(lp407
S'MCTruth'
p408
aS'Mets'
p409
aS'Vertex'
p410
aS'minEventQualityToStore'
p411
aS'Trigger'
p412
aS'Electrons'
p413
aS'Jets'
p414
aS'Muons'
p415
asg11
I00
sg20
I01
sg40
I36
sg409
g0
(g28
g2
Ntp416
Rp417
(dp418
g11
I00
sg19
I01
sg20
I00
sS'filter2'
p419
g0
(g309
g2
Ntp420
Rp421
(dp422
g11
I00
sg19
I01
sg20
I00
sg313
g328
sg315
g316
sg317
g316
sbsS'sources'
p423
g0
(g309
g2
Ntp424
Rp425
(dp426
g11
I00
sg19
I01
sg20
I00
sg313
S'slimmedMETs'
p427
sg315
g316
sg317
g316
sbsS'filter1'
p428
g0
(g309
g2
Ntp429
Rp430
(dp431
g11
I00
sg19
I01
sg20
I00
sg313
g366
sg315
g316
sg317
g316
sbsS'minMET'
p432
g0
(g298
g2
Ntp433
Rp434
(dp435
g11
I00
sg19
I01
sg37
I10
sg20
I00
sbsg38
(lp436
g432
ag423
ag428
ag419
asg267
S'BaseMetsSet'
p437
sbsg69
g321
sg410
g0
(g28
g2
Ntp438
Rp439
(dp440
g11
I00
sg19
I01
sS'maxZ'
p441
g0
(g298
g2
Ntp442
Rp443
(dp444
g11
I00
sg19
I01
sg37
I24
sg20
I00
sbsg20
I00
sS'beamSpotSource'
p445
g0
(g309
g2
Ntp446
Rp447
(dp448
g11
I00
sg19
I01
sg20
I00
sg313
S'offlineBeamSpot'
p449
sg315
g316
sg317
g316
sbsS'useBeamSpot'
p450
g0
(g33
g2
Ntp451
Rp452
(dp453
g11
I00
sg19
I01
sg37
I01
sg20
I00
sbsS'maxRho'
p454
g0
(g298
g2
Ntp455
Rp456
(dp457
g11
I00
sg19
I01
sg37
F2.0
sg20
I00
sbsS'rho'
p458
g0
(g309
g2
Ntp459
Rp460
(dp461
g11
I00
sg19
I01
sg20
I00
sg313
S'fixedGridRhoAll'
p462
sg315
g316
sg317
g316
sbsg38
(lp463
g441
ag445
ag454
ag458
ag450
aS'minNDOF'
p464
aS'vertexSource'
p465
asg267
S'BaseVertexSet'
p466
sg464
g0
(g103
g2
Ntp467
Rp468
(dp469
g11
I00
sg19
I01
sg37
I4
sg20
I00
sbsg465
g0
(g309
g2
Ntp470
Rp471
(dp472
g11
I00
sg19
I01
sg20
I00
sg313
S'offlineSlimmedPrimaryVertices'
p473
sg315
g316
sg317
g316
sbsbsg408
g255
sg411
g0
(g103
g2
Ntp474
Rp475
(dp476
g11
I00
sg19
I01
sg37
I1
sg20
I00
sbsg412
g0
(g28
g2
Ntp477
Rp478
(dp479
g11
I00
sg19
I01
sg20
I01
sS'sourceFilter'
p480
g0
(g309
g2
Ntp481
Rp482
(dp483
g11
I00
sg19
I01
sg20
I00
sg313
S'TriggerResults'
p484
sg315
S'HLT'
p485
sg317
g316
sbsS'trigBits'
p486
g0
(g13
g14
(lp487
S'HLT_IsoMu24'
p488
aS'HLT_IsoTkMu24'
p489
aS'HLT_Mu50'
p490
aS'HLT_TkMu50'
p491
aS'HLT_DoubleEle33'
p492
aS'HLT_Ele27_WPTight_Gsf'
p493
atp494
Rp495
(dp496
g11
I00
sg19
I01
sg20
I00
sg21
I1
sbsS'source'
p497
g0
(g309
g2
Ntp498
Rp499
(dp500
g11
I00
sg19
I01
sg20
I00
sg313
S'TriggerResults'
p501
sg315
S'HLT'
p502
sg317
g316
sbsS'metFilterBits'
p503
g0
(g13
g14
(lp504
S'Flag_goodVertices'
p505
aS'Flag_globalSuperTightHalo2016Filter'
p506
aS'Flag_HBHENoiseFilter'
p507
aS'Flag_HBHENoiseIsoFilter'
p508
aS'Flag_EcalDeadCellTriggerPrimitiveFilter'
p509
atp510
Rp511
(dp512
g11
I00
sg19
I01
sg20
I00
sg21
I1
sbsg38
(lp513
g480
ag503
ag486
ag497
asg267
S'BaseTriggerSet'
p514
sbsg413
g0
(g28
g2
Ntp515
Rp516
(dp517
g11
I00
sg19
I01
sS'beamSpot'
p518
g0
(g309
g2
Ntp519
Rp520
(dp521
g11
I00
sg19
I01
sg20
I00
sg313
g449
sg315
g316
sg317
g316
sbsS'conversionsMiniAOD'
p522
g0
(g309
g2
Ntp523
Rp524
(dp525
g11
I00
sg19
I01
sg20
I00
sg313
S'reducedEgamma'
p526
sg315
g316
sg317
S'reducedConversions'
p527
sbsS'minEt'
p528
g0
(g298
g2
Ntp529
Rp530
(dp531
g11
I00
sg19
I01
sg37
I10
sg20
I00
sbsg423
g0
(g309
g2
Ntp532
Rp533
(dp534
g11
I00
sg19
I01
sg20
I00
sg313
S'slimmedElectrons'
p535
sg315
g316
sg317
g316
sbsg38
(lp536
g518
ag522
ag528
ag423
aS'maxEta'
p537
aS'rhoIso'
p538
asg267
S'BaseElectronsSet'
p539
sg537
g0
(g298
g2
Ntp540
Rp541
(dp542
g11
I00
sg19
I01
sg37
F2.5
sg20
I00
sbsg538
g0
(g309
g2
Ntp543
Rp544
(dp545
g11
I00
sg19
I01
sg20
I00
sg313
S'fixedGridRhoFastjetAll'
p546
sg315
g316
sg317
g316
sbsg20
I00
sbsg267
S'myMiniTreeProducer'
p547
sg414
g0
(g28
g2
Ntp548
Rp549
(dp550
g11
I00
sg19
I01
sS'jet_rho'
p551
g0
(g309
g2
Ntp552
Rp553
(dp554
g11
I00
sg19
I01
sg20
I00
sg313
g462
sg315
g316
sg317
g316
sbsS'dedxSource'
p555
g0
(g309
g2
Ntp556
Rp557
(dp558
g11
I00
sg19
I01
sg20
I00
sg313
S'dedxHarmonic2'
p559
sg315
g316
sg317
g316
sbsg20
I01
sg537
g0
(g298
g2
Ntp560
Rp561
(dp562
g11
I00
sg19
I01
sg37
F2.5
sg20
I00
sbsS'resolutionsFile'
p563
g0
(g164
g2
Ntp564
Rp565
(dp566
g11
I00
sg19
I01
sg37
S'Fall17_V3_MC_PtResolution_AK8PF.txt'
p567
sg20
I00
sbsg423
g0
(g309
g2
Ntp568
Rp569
(dp570
g11
I00
sg19
I01
sg20
I00
sg313
S'slimmedJetsAK8'
p571
sg315
g316
sg317
g316
sbsg38
(lp572
g563
ag551
ag555
aS'minPt'
p573
ag537
ag423
aS'scaleFactorsFile'
p574
asg267
S'BaseJetsSet'
p575
sg574
g0
(g164
g2
Ntp576
Rp577
(dp578
g11
I00
sg19
I01
sg37
S'Fall17_V3_MC_SF_AK8PF.txt'
p579
sg20
I00
sbsg573
g0
(g298
g2
Ntp580
Rp581
(dp582
g11
I00
sg19
I01
sg37
I17
sg20
I00
sbsbsg415
g0
(g28
g2
Ntp583
Rp584
(dp585
g11
I00
sg19
I01
sg20
I00
sg537
g0
(g298
g2
Ntp586
Rp587
(dp588
g11
I00
sg19
I01
sg37
F2.5
sg20
I00
sbsg423
g0
(g309
g2
Ntp589
Rp590
(dp591
g11
I00
sg19
I01
sg20
I00
sg313
g341
sg315
g316
sg317
g316
sbsg38
(lp592
g537
ag423
ag573
asg267
S'BaseMuonsSet'
p593
sg573
g0
(g298
g2
Ntp594
Rp595
(dp596
g11
I00
sg19
I01
sg37
I10
sg20
I00
sbsbsg46
S'MiniTreeProducer'
p597
sbasbsg267
g388
sg20
I00
sg379
g0
(g380
g2
Ntp598
Rp599
(dp600
g384
(dp601
sg386
(lp602
Nag602
ag602
asbsbsS'_Process__services'
p603
(dp604
g6
g9
sS'TFileService'
p605
g0
(g7
g2
Ntp606
Rp607
(dp608
g38
(lp609
S'closeFileFast'
p610
aS'fileName'
p611
asg11
I00
sg176
I01
sg610
g0
(g33
g2
Ntp612
Rp613
(dp614
g11
I00
sg19
I00
sg37
I00
sg20
I00
sbsg40
I11
sg69
g70
sg611
g0
(g164
g2
Ntp615
Rp616
(dp617
g11
I00
sg19
I01
sg37
S'ExLepMuMuZ_M4500_MC_20191101_Ntuple.root'
p618
sg20
I00
sbsg46
g605
sg20
I01
sbssS'_Process__source'
p619
g0
(cFWCore.ParameterSet.Modules
Source
p620
g2
Ntp621
Rp622
(dp623
g38
(lp624
S'fileNames'
p625
asg11
I00
sg20
I00
sg40
I193
sg69
g70
sg625
g0
(g13
g14
(lp626
S'/store/mc/RunIIFall17MiniAODv2/ExcitedLepton_MuMuZ-250_TuneCP5_13TeV_pythia8/MINIAODSIM/PU2017_12Apr2018_94X_mc2017_realistic_v14-v1/80000/FE840902-D773-E811-B18A-0090FAA569C4.root'
p627
atp628
Rp629
(dp630
g11
I00
sg19
I00
sg20
I00
sg21
I1
sbsg46
S'PoolSource'
p631
sbsS'StripCPEfromTrackAngleESProducer'
p632
g0
(cFWCore.ParameterSet.Modules
ESProducer
p633
g2
Ntp634
Rp635
(dp636
g38
(lp637
S'ComponentType'
p638
aS'ComponentName'
p639
aS'parameters'
p640
asg11
I00
sg20
I01
sg640
g0
(g28
g2
Ntp641
Rp642
(dp643
g11
I00
sg19
I01
sS'maxChgOneMIP'
p644
g0
(g298
g2
Ntp645
Rp646
(dp647
g11
I00
sg19
I01
sg37
F6000.0
sg20
I00
sbsS'mLC_P2'
p648
g0
(g298
g2
Ntp649
Rp650
(dp651
g11
I00
sg19
I01
sg37
F0.3
sg20
I00
sbsS'mLC_P1'
p652
g0
(g298
g2
Ntp653
Rp654
(dp655
g11
I00
sg19
I01
sg37
F0.618
sg20
I00
sbsS'mLC_P0'
p656
g0
(g298
g2
Ntp657
Rp658
(dp659
g11
I00
sg19
I01
sg37
F-0.326
sg20
I00
sbsS'useLegacyError'
p660
g0
(g33
g2
Ntp661
Rp662
(dp663
g11
I00
sg19
I01
sg37
I00
sg20
I00
sbsS'mTIB_P1'
p664
g0
(g298
g2
Ntp665
Rp666
(dp667
g11
I00
sg19
I01
sg37
F0.202
sg20
I00
sbsS'mTEC_P1'
p668
g0
(g298
g2
Ntp669
Rp670
(dp671
g11
I00
sg19
I01
sg37
F0.471
sg20
I00
sbsS'mTEC_P0'
p672
g0
(g298
g2
Ntp673
Rp674
(dp675
g11
I00
sg19
I01
sg37
F-1.885
sg20
I00
sbsS'mTOB_P0'
p676
g0
(g298
g2
Ntp677
Rp678
(dp679
g11
I00
sg19
I01
sg37
F-1.026
sg20
I00
sbsS'mTOB_P1'
p680
g0
(g298
g2
Ntp681
Rp682
(dp683
g11
I00
sg19
I01
sg37
F0.253
sg20
I00
sbsS'mTIB_P0'
p684
g0
(g298
g2
Ntp685
Rp686
(dp687
g11
I00
sg19
I01
sg37
F-0.742
sg20
I00
sbsg38
(lp688
g644
ag648
ag652
ag656
ag660
ag668
ag672
ag676
ag680
ag684
ag664
aS'mTID_P0'
p689
aS'mTID_P1'
p690
asg689
g0
(g298
g2
Ntp691
Rp692
(dp693
g11
I00
sg19
I01
sg37
F-1.427
sg20
I00
sbsg690
g0
(g298
g2
Ntp694
Rp695
(dp696
g11
I00
sg19
I01
sg37
F0.433
sg20
I00
sbsg20
I00
sbsg40
I4
sg639
g0
(g164
g2
Ntp697
Rp698
(dp699
g11
I00
sg19
I01
sg37
S'StripCPEfromTrackAngle'
p700
sg20
I00
sbsg638
g0
(g164
g2
Ntp701
Rp702
(dp703
g11
I00
sg19
I01
sg37
g700
sg20
I00
sbsg69
S'/cvmfs/cms.cern.ch/slc7_amd64_gcc700/cms/cmssw/CMSSW_10_4_0/python/RecoLocalTracker/SiStripRecHitConverter/StripCPEfromTrackAngle_cfi.py'
p704
sg267
g632
sg46
S'StripCPEESProducer'
p705
sbsS'_Process__aliases'
p706
(dp707
sS'siStripBackPlaneCorrectionDepESProducer'
p708
g0
(g633
g2
Ntp709
Rp710
(dp711
g38
(lp712
S'LatencyRecord'
p713
aS'BackPlaneCorrectionDeconvMode'
p714
aS'BackPlaneCorrectionPeakMode'
p715
asg11
I00
sg20
I00
sg40
I53
sg69
g70
sg713
g0
(g28
g2
Ntp716
Rp717
(dp718
g11
I00
sg19
I01
sg20
I00
sS'label'
p719
g0
(g164
g2
Ntp720
Rp721
(dp722
g11
I00
sg19
I00
sg37
g316
sg20
I00
sbsS'record'
p723
g0
(g164
g2
Ntp724
Rp725
(dp726
g11
I00
sg19
I01
sg37
S'SiStripLatencyRcd'
p727
sg20
I00
sbsg38
(lp728
g723
ag719
asbsg715
g0
(g28
g2
Ntp729
Rp730
(dp731
g11
I00
sg19
I01
sg20
I00
sg719
g0
(g164
g2
Ntp732
Rp733
(dp734
g11
I00
sg19
I00
sg37
S'peak'
p735
sg20
I00
sbsg723
g0
(g164
g2
Ntp736
Rp737
(dp738
g11
I00
sg19
I01
sg37
S'SiStripBackPlaneCorrectionRcd'
p739
sg20
I00
sbsg38
(lp740
g723
ag719
asbsg267
g708
sg714
g0
(g28
g2
Ntp741
Rp742
(dp743
g11
I00
sg19
I01
sg20
I00
sg719
g0
(g164
g2
Ntp744
Rp745
(dp746
g11
I00
sg19
I00
sg37
S'deconvolution'
p747
sg20
I00
sbsg723
g0
(g164
g2
Ntp748
Rp749
(dp750
g11
I00
sg19
I01
sg37
g739
sg20
I00
sbsg38
(lp751
g723
ag719
asbsg46
S'SiStripBackPlaneCorrectionDepESProducer'
p752
sbsS'HFRecalParameterBlock'
p753
g0
(g28
g2
Ntp754
Rp755
(dp756
g11
I00
sg19
I01
sg20
I00
sS'HFdepthTwoParameterA'
p757
g0
(cFWCore.ParameterSet.Types
vdouble
p758
g14
(lp759
F0.002861
aF0.004168
aF0.0064
aF0.008388
aF0.011601
aF0.014425
aF0.018633
aF0.023232
aF0.028274
aF0.035447
aF0.051579
aF0.086593
atp760
Rp761
(dp762
g11
I00
sg19
I01
sg20
I00
sbsS'HFdepthOneParameterA'
p763
g0
(g758
g14
(lp764
F0.004123
aF0.00602
aF0.008201
aF0.010489
aF0.013379
aF0.016997
aF0.021464
aF0.027371
aF0.034195
aF0.044807
aF0.058939
aF0.125497
atp765
Rp766
(dp767
g11
I00
sg19
I01
sg20
I00
sbsS'HFdepthOneParameterB'
p768
g0
(g758
g14
(lp769
F-4e-06
aF-2e-06
aF0.0
aF4e-06
aF1.5e-05
aF2.6e-05
aF6.3e-05
aF8.4e-05
aF0.00016
aF0.000107
aF0.000425
aF0.000209
atp770
Rp771
(dp772
g11
I00
sg19
I01
sg20
I00
sbsS'HFdepthTwoParameterB'
p773
g0
(g758
g14
(lp774
F-2e-06
aF-0.0
aF-7e-06
aF-6e-06
aF-2e-06
aF1e-06
aF1.9e-05
aF3.1e-05
aF6.7e-05
aF1.2e-05
aF0.000157
aF-3e-06
atp775
Rp776
(dp777
g11
I00
sg19
I01
sg20
I00
sbsg38
(lp778
g763
ag768
ag773
ag757
asg267
g753
sbsg270
g273
sS'stripCPEESProducer'
p779
g0
(g633
g2
Ntp780
Rp781
(dp782
g38
(lp783
g638
ag639
ag640
asg11
I00
sg20
I00
sg640
g0
(g28
g2
Ntp784
Rp785
(dp786
g11
I00
sg19
I01
sg20
I00
sg38
(lp787
sbsg40
I53
sg639
g0
(g164
g2
Ntp788
Rp789
(dp790
g11
I00
sg19
I01
sg37
S'stripCPE'
p791
sg20
I00
sbsg638
g0
(g164
g2
Ntp792
Rp793
(dp794
g11
I00
sg19
I01
sg37
S'SimpleStripCPE'
p795
sg20
I00
sbsg69
g70
sg267
g779
sg46
g705
sbsS'EcalLaserCorrectionService'
p796
g0
(g633
g2
Ntp797
Rp798
(dp799
g38
(lp800
sg11
I00
sg20
I00
sg40
I53
sg69
g70
sg267
g796
sg46
g796
sbsS'_Process__psets'
p801
(dp802
g539
g516
sg253
g255
sg466
g439
sg437
g417
sg575
g549
sS'maxEvents'
p803
g0
(g28
g2
Ntp804
Rp805
(dp806
g11
I00
sg19
I00
sg20
I00
sg38
(lp807
S'input'
p808
asg267
g803
sg808
g0
(g103
g2
Ntp809
Rp810
(dp811
g11
I00
sg19
I00
sg37
I-1
sg20
I00
sbsbsg514
g478
sg593
g584
sg753
g755
sS'options'
p812
g0
(g28
g2
Ntp813
Rp814
(dp815
g11
I00
sg19
I00
sg20
I00
sS'wantSummary'
p816
g0
(g33
g2
Ntp817
Rp818
(dp819
g11
I00
sg19
I00
sg37
I01
sg20
I00
sbsg38
(lp820
g816
asg267
g812
sbssS'hcal_db_producer'
p821
g0
(g633
g2
Ntp822
Rp823
(dp824
g38
(lp825
S'file'
p826
aS'dump'
p827
asg11
I00
sg20
I00
sg827
g0
(g13
g14
(lp828
g316
atp829
Rp830
(dp831
g11
I00
sg19
I00
sg20
I00
sg21
I1
sbsg40
I53
sg69
g70
sg826
g0
(g164
g2
Ntp832
Rp833
(dp834
g11
I00
sg19
I00
sg37
g316
sg20
I00
sbsg267
g821
sg46
S'HcalDbProducer'
p835
sbsg605
g607
sS'_Process__essources'
p836
(dp837
S'es_hardcode'
p838
g0
(cFWCore.ParameterSet.Modules
ESSource
p839
g2
Ntp840
Rp841
(dp842
g11
I00
sg40
I172
sS'useHEUpgrade'
p843
g0
(g33
g2
Ntp844
Rp845
(dp846
g11
I00
sg19
I01
sg37
I00
sg20
I00
sbsS'HBRecalibration'
p847
g0
(g33
g2
Ntp848
Rp849
(dp850
g11
I00
sg19
I01
sg37
I00
sg20
I00
sbsS'useLayer0Weight'
p851
g0
(g33
g2
Ntp852
Rp853
(dp854
g11
I00
sg19
I01
sg37
I00
sg20
I00
sbsS'HEmeanenergies'
p855
g0
(cFWCore.ParameterSet.Types
FileInPath
p856
g2
Ntp857
Rp858
(dp859
g11
I00
sg19
I01
sg37
S'CalibCalorimetry/HcalPlugins/data/meanenergiesHE.txt'
p860
sg20
I00
sbsg753
g755
sS'heUpgrade'
p861
g0
(g28
g2
Ntp862
Rp863
(dp864
g11
I00
sg19
I01
sS'qieType'
p865
g0
(g103
g2
Ntp866
Rp867
(dp868
g11
I00
sg19
I01
sg37
I2
sg20
I00
sbsg20
I00
sS'pedestalWidth'
p869
g0
(g298
g2
Ntp870
Rp871
(dp872
g11
I00
sg19
I01
sg37
F1.5
sg20
I00
sbsS'recoShape'
p873
g0
(g103
g2
Ntp874
Rp875
(dp876
g11
I00
sg19
I01
sg37
I206
sg20
I00
sbsS'zsThreshold'
p877
g0
(g103
g2
Ntp878
Rp879
(dp880
g11
I00
sg19
I01
sg37
I16
sg20
I00
sbsS'darkCurrent'
p881
g0
(g758
g14
(lp882
F0.01
aF0.015
atp883
Rp884
(dp885
g11
I00
sg19
I01
sg20
I00
sbsS'qieOffset'
p886
g0
(g758
g14
(lp887
F0.0
aF0.0
aF0.0
aF0.0
atp888
Rp889
(dp890
g11
I00
sg19
I01
sg20
I00
sbsS'qieSlope'
p891
g0
(g758
g14
(lp892
F0.05376
aF0.05376
aF0.05376
aF0.05376
atp893
Rp894
(dp895
g11
I00
sg19
I01
sg20
I00
sbsS'radiationDamage'
p896
g0
(g28
g2
Ntp897
Rp898
(dp899
g11
I00
sg19
I01
sS'temperatureNew'
p900
g0
(g298
g2
Ntp901
Rp902
(dp903
g11
I00
sg19
I01
sg37
I5
sg20
I00
sbsg20
I00
sS'depVsNeutrons'
p904
g0
(g758
g14
(lp905
F5.543e-10
aF8.012e-10
atp906
Rp907
(dp908
g11
I00
sg19
I01
sg20
I00
sbsS'temperatureBase'
p909
g0
(g298
g2
Ntp910
Rp911
(dp912
g11
I00
sg19
I01
sg37
I20
sg20
I00
sbsS'depVsTemp'
p913
g0
(g298
g2
Ntp914
Rp915
(dp916
g11
I00
sg19
I01
sg37
F0.0631
sg20
I00
sbsS'intlumiOffset'
p917
g0
(g298
g2
Ntp918
Rp919
(dp920
g11
I00
sg19
I01
sg37
I75
sg20
I00
sbsg38
(lp921
g900
ag904
ag909
ag913
ag917
aS'intlumiToNeutrons'
p922
asg922
g0
(g298
g2
Ntp923
Rp924
(dp925
g11
I00
sg19
I01
sg37
F29200000.0
sg20
I00
sbsbsS'doRadiationDamage'
p926
g0
(g33
g2
Ntp927
Rp928
(dp929
g11
I00
sg19
I01
sg37
I01
sg20
I00
sbsg38
(lp930
g865
ag869
ag873
ag877
aS'photoelectronsToAnalog'
p931
ag886
ag891
ag896
ag926
ag881
aS'pedestal'
p932
aS'mcShape'
p933
aS'gainWidth'
p934
aS'gain'
p935
asg931
g0
(g298
g2
Ntp936
Rp937
(dp938
g11
I00
sg19
I01
sg37
F40.0
sg20
I00
sbsg932
g0
(g298
g2
Ntp939
Rp940
(dp941
g11
I00
sg19
I01
sg37
F17.3
sg20
I00
sbsg933
g0
(g103
g2
Ntp942
Rp943
(dp944
g11
I00
sg19
I01
sg37
I206
sg20
I00
sbsg934
g0
(g758
g14
(lp945
I0
atp946
Rp947
(dp948
g11
I00
sg19
I01
sg20
I00
sbsg935
g0
(g758
g14
(lp949
F0.0006252
atp950
Rp951
(dp952
g11
I00
sg19
I01
sg20
I00
sbsbsg38
(lp953
S'toGet'
p954
ag847
ag851
ag855
ag753
ag861
aS'useIeta18depth1'
p955
aS'killHE'
p956
aS'useHBUpgrade'
p957
aS'hbUpgrade'
p958
aS'testHEPlan1'
p959
aS'iLumi'
p960
aS'testHFQIE10'
p961
aS'HBmeanenergies'
p962
ag843
aS'GainWidthsForTrigPrims'
p963
aS'HBreCalibCutoff'
p964
aS'HFRecalibration'
p965
aS'ho'
p966
aS'hb'
p967
aS'hf'
p968
aS'he'
p969
aS'HERecalibration'
p970
aS'useHFUpgrade'
p971
aS'HEreCalibCutoff'
p972
aS'SiPMCharacteristics'
p973
aS'useHOUpgrade'
p974
aS'hfUpgrade'
p975
asg69
S'/cvmfs/cms.cern.ch/slc7_amd64_gcc700/cms/cmssw/CMSSW_10_4_0/python/CalibCalorimetry/HcalPlugins/Hcal_Conditions_forGlobalTag_cff.py'
p976
sg955
g0
(g33
g2
Ntp977
Rp978
(dp979
g11
I00
sg19
I01
sg37
I01
sg20
I00
sbsg956
g0
(g33
g2
Ntp980
Rp981
(dp982
g11
I00
sg19
I01
sg37
I00
sg20
I00
sbsg957
g0
(g33
g2
Ntp983
Rp984
(dp985
g11
I00
sg19
I01
sg37
I00
sg20
I00
sbsg958
g0
(g28
g2
Ntp986
Rp987
(dp988
g11
I00
sg19
I01
sg865
g0
(g103
g2
Ntp989
Rp990
(dp991
g11
I00
sg19
I01
sg37
I2
sg20
I00
sbsg20
I00
sg869
g0
(g298
g2
Ntp992
Rp993
(dp994
g11
I00
sg19
I01
sg37
F1.5
sg20
I00
sbsg873
g0
(g103
g2
Ntp995
Rp996
(dp997
g11
I00
sg19
I01
sg37
I206
sg20
I00
sbsg877
g0
(g103
g2
Ntp998
Rp999
(dp1000
g11
I00
sg19
I01
sg37
I16
sg20
I00
sbsg881
g0
(g758
g14
(lp1001
F0.01
aF0.015
atp1002
Rp1003
(dp1004
g11
I00
sg19
I01
sg20
I00
sbsg886
g0
(g758
g14
(lp1005
F0.0
aF0.0
aF0.0
aF0.0
atp1006
Rp1007
(dp1008
g11
I00
sg19
I01
sg20
I00
sbsg891
g0
(g758
g14
(lp1009
F0.05376
aF0.05376
aF0.05376
aF0.05376
atp1010
Rp1011
(dp1012
g11
I00
sg19
I01
sg20
I00
sbsg896
g0
(g28
g2
Ntp1013
Rp1014
(dp1015
g11
I00
sg19
I01
sg900
g0
(g298
g2
Ntp1016
Rp1017
(dp1018
g11
I00
sg19
I01
sg37
I-5
sg20
I00
sbsg20
I00
sg904
g0
(g758
g14
(lp1019
F5.543e-10
aF8.012e-10
atp1020
Rp1021
(dp1022
g11
I00
sg19
I01
sg20
I00
sbsg909
g0
(g298
g2
Ntp1023
Rp1024
(dp1025
g11
I00
sg19
I01
sg37
I20
sg20
I00
sbsg913
g0
(g298
g2
Ntp1026
Rp1027
(dp1028
g11
I00
sg19
I01
sg37
F0.0631
sg20
I00
sbsg917
g0
(g298
g2
Ntp1029
Rp1030
(dp1031
g11
I00
sg19
I01
sg37
I150
sg20
I00
sbsg38
(lp1032
g900
ag904
ag909
ag913
ag917
ag922
asg922
g0
(g298
g2
Ntp1033
Rp1034
(dp1035
g11
I00
sg19
I01
sg37
F367000000.0
sg20
I00
sbsbsg926
g0
(g33
g2
Ntp1036
Rp1037
(dp1038
g11
I00
sg19
I01
sg37
I01
sg20
I00
sbsg38
(lp1039
g865
ag869
ag873
ag877
ag931
ag886
ag891
ag896
ag926
ag881
ag932
ag933
ag934
ag935
asg931
g0
(g298
g2
Ntp1040
Rp1041
(dp1042
g11
I00
sg19
I01
sg37
F40.0
sg20
I00
sbsg932
g0
(g298
g2
Ntp1043
Rp1044
(dp1045
g11
I00
sg19
I01
sg37
F17.3
sg20
I00
sbsg933
g0
(g103
g2
Ntp1046
Rp1047
(dp1048
g11
I00
sg19
I01
sg37
I206
sg20
I00
sbsg934
g0
(g758
g14
(lp1049
I0
atp1050
Rp1051
(dp1052
g11
I00
sg19
I01
sg20
I00
sbsg935
g0
(g758
g14
(lp1053
F0.0006252
atp1054
Rp1055
(dp1056
g11
I00
sg19
I01
sg20
I00
sbsbsg46
S'HcalHardcodeCalibrations'
p1057
sg959
g0
(g33
g2
Ntp1058
Rp1059
(dp1060
g11
I00
sg19
I01
sg37
I00
sg20
I00
sbsg960
g0
(g298
g2
Ntp1061
Rp1062
(dp1063
g11
I00
sg19
I01
sg37
F-1.0
sg20
I00
sbsg961
g0
(g33
g2
Ntp1064
Rp1065
(dp1066
g11
I00
sg19
I01
sg37
I00
sg20
I00
sbsg962
g0
(g856
g2
Ntp1067
Rp1068
(dp1069
g11
I00
sg19
I01
sg37
S'CalibCalorimetry/HcalPlugins/data/meanenergiesHB.txt'
p1070
sg20
I00
sbsg954
g0
(g13
g14
(lp1071
S'GainWidths'
p1072
atp1073
Rp1074
(dp1075
g11
I00
sg19
I00
sg20
I00
sg21
I1
sbsg963
g0
(g33
g2
Ntp1076
Rp1077
(dp1078
g11
I00
sg19
I01
sg37
I00
sg20
I00
sbsg964
g0
(g298
g2
Ntp1079
Rp1080
(dp1081
g11
I00
sg19
I01
sg37
F20.0
sg20
I00
sbsg965
g0
(g33
g2
Ntp1082
Rp1083
(dp1084
g11
I00
sg19
I01
sg37
I00
sg20
I00
sbsg966
g0
(g28
g2
Ntp1085
Rp1086
(dp1087
g11
I00
sg19
I01
sg865
g0
(g103
g2
Ntp1088
Rp1089
(dp1090
g11
I00
sg19
I01
sg37
I0
sg20
I00
sbsg20
I00
sg869
g0
(g298
g2
Ntp1091
Rp1092
(dp1093
g11
I00
sg19
I01
sg37
F0.6285
sg20
I00
sbsg873
g0
(g103
g2
Ntp1094
Rp1095
(dp1096
g11
I00
sg19
I01
sg37
I201
sg20
I00
sbsg877
g0
(g103
g2
Ntp1097
Rp1098
(dp1099
g11
I00
sg19
I01
sg37
I24
sg20
I00
sbsg881
g0
(g758
g14
(lp1100
F0.0
atp1101
Rp1102
(dp1103
g11
I00
sg19
I01
sg20
I00
sbsg886
g0
(g758
g14
(lp1104
F-0.44
aF1.4
aF7.1
aF38.5
atp1105
Rp1106
(dp1107
g11
I00
sg19
I01
sg20
I00
sbsg891
g0
(g758
g14
(lp1108
F0.907
aF0.915
aF0.92
aF0.921
atp1109
Rp1110
(dp1111
g11
I00
sg19
I01
sg20
I00
sbsg935
g0
(g758
g14
(lp1112
F0.006
aF0.0087
atp1113
Rp1114
(dp1115
g11
I00
sg19
I01
sg20
I00
sbsg926
g0
(g33
g2
Ntp1116
Rp1117
(dp1118
g11
I00
sg19
I01
sg37
I00
sg20
I00
sbsg38
(lp1119
g865
ag869
ag873
ag877
ag931
ag886
ag891
ag935
ag926
ag881
ag932
ag933
ag934
asg931
g0
(g298
g2
Ntp1120
Rp1121
(dp1122
g11
I00
sg19
I01
sg37
F4.0
sg20
I00
sbsg932
g0
(g298
g2
Ntp1123
Rp1124
(dp1125
g11
I00
sg19
I01
sg37
F12.06
sg20
I00
sbsg933
g0
(g103
g2
Ntp1126
Rp1127
(dp1128
g11
I00
sg19
I01
sg37
I201
sg20
I00
sbsg934
g0
(g758
g14
(lp1129
F0.0
aF0.0
atp1130
Rp1131
(dp1132
g11
I00
sg19
I01
sg20
I00
sbsbsg967
g0
(g28
g2
Ntp1133
Rp1134
(dp1135
g11
I00
sg19
I01
sg865
g0
(g103
g2
Ntp1136
Rp1137
(dp1138
g11
I00
sg19
I01
sg37
I0
sg20
I00
sbsg20
I00
sg869
g0
(g298
g2
Ntp1139
Rp1140
(dp1141
g11
I00
sg19
I01
sg37
F0.809
sg20
I00
sbsg873
g0
(g103
g2
Ntp1142
Rp1143
(dp1144
g11
I00
sg19
I01
sg37
I105
sg20
I00
sbsg877
g0
(g103
g2
Ntp1145
Rp1146
(dp1147
g11
I00
sg19
I01
sg37
I8
sg20
I00
sbsg881
g0
(g758
g14
(lp1148
F0.0
atp1149
Rp1150
(dp1151
g11
I00
sg19
I01
sg20
I00
sbsg886
g0
(g758
g14
(lp1152
F-0.49
aF1.8
aF7.2
aF37.9
atp1153
Rp1154
(dp1155
g11
I00
sg19
I01
sg20
I00
sbsg891
g0
(g758
g14
(lp1156
F0.912
aF0.917
aF0.922
aF0.923
atp1157
Rp1158
(dp1159
g11
I00
sg19
I01
sg20
I00
sbsg935
g0
(g758
g14
(lp1160
F0.19
atp1161
Rp1162
(dp1163
g11
I00
sg19
I01
sg20
I00
sbsg926
g0
(g33
g2
Ntp1164
Rp1165
(dp1166
g11
I00
sg19
I01
sg37
I00
sg20
I00
sbsg38
(lp1167
g865
ag869
ag873
ag877
ag931
ag886
ag891
ag935
ag926
ag881
ag932
ag933
ag934
asg931
g0
(g298
g2
Ntp1168
Rp1169
(dp1170
g11
I00
sg19
I01
sg37
F0.3305
sg20
I00
sbsg932
g0
(g298
g2
Ntp1171
Rp1172
(dp1173
g11
I00
sg19
I01
sg37
F3.285
sg20
I00
sbsg933
g0
(g103
g2
Ntp1174
Rp1175
(dp1176
g11
I00
sg19
I01
sg37
I125
sg20
I00
sbsg934
g0
(g758
g14
(lp1177
F0.0
atp1178
Rp1179
(dp1180
g11
I00
sg19
I01
sg20
I00
sbsbsg968
g0
(g28
g2
Ntp1181
Rp1182
(dp1183
g11
I00
sg19
I01
sg865
g0
(g103
g2
Ntp1184
Rp1185
(dp1186
g11
I00
sg19
I01
sg37
I0
sg20
I00
sbsg20
I00
sg869
g0
(g298
g2
Ntp1187
Rp1188
(dp1189
g11
I00
sg19
I01
sg37
F2.516
sg20
I00
sbsg873
g0
(g103
g2
Ntp1190
Rp1191
(dp1192
g11
I00
sg19
I01
sg37
I301
sg20
I00
sbsg877
g0
(g103
g2
Ntp1193
Rp1194
(dp1195
g11
I00
sg19
I01
sg37
I-9999
sg20
I00
sbsg881
g0
(g758
g14
(lp1196
F0.0
atp1197
Rp1198
(dp1199
g11
I00
sg19
I01
sg20
I00
sbsg886
g0
(g758
g14
(lp1200
F-0.87
aF1.4
aF7.8
aF-29.6
atp1201
Rp1202
(dp1203
g11
I00
sg19
I01
sg20
I00
sbsg891
g0
(g758
g14
(lp1204
F0.359
aF0.358
aF0.36
aF0.367
atp1205
Rp1206
(dp1207
g11
I00
sg19
I01
sg20
I00
sbsg935
g0
(g758
g14
(lp1208
F0.14
aF0.135
atp1209
Rp1210
(dp1211
g11
I00
sg19
I01
sg20
I00
sbsg926
g0
(g33
g2
Ntp1212
Rp1213
(dp1214
g11
I00
sg19
I01
sg37
I00
sg20
I00
sbsg38
(lp1215
g865
ag869
ag873
ag877
ag931
ag886
ag891
ag935
ag926
ag881
ag932
ag933
ag934
asg931
g0
(g298
g2
Ntp1216
Rp1217
(dp1218
g11
I00
sg19
I01
sg37
F0.0
sg20
I00
sbsg932
g0
(g298
g2
Ntp1219
Rp1220
(dp1221
g11
I00
sg19
I01
sg37
F9.354
sg20
I00
sbsg933
g0
(g103
g2
Ntp1222
Rp1223
(dp1224
g11
I00
sg19
I01
sg37
I301
sg20
I00
sbsg934
g0
(g758
g14
(lp1225
F0.0
aF0.0
atp1226
Rp1227
(dp1228
g11
I00
sg19
I01
sg20
I00
sbsbsg969
g0
(g28
g2
Ntp1229
Rp1230
(dp1231
g11
I00
sg19
I01
sg865
g0
(g103
g2
Ntp1232
Rp1233
(dp1234
g11
I00
sg19
I01
sg37
I0
sg20
I00
sbsg20
I00
sg869
g0
(g298
g2
Ntp1235
Rp1236
(dp1237
g11
I00
sg19
I01
sg37
F0.9698
sg20
I00
sbsg873
g0
(g103
g2
Ntp1238
Rp1239
(dp1240
g11
I00
sg19
I01
sg37
I105
sg20
I00
sbsg877
g0
(g103
g2
Ntp1241
Rp1242
(dp1243
g11
I00
sg19
I01
sg37
I9
sg20
I00
sbsg881
g0
(g758
g14
(lp1244
F0.0
atp1245
Rp1246
(dp1247
g11
I00
sg19
I01
sg20
I00
sbsg886
g0
(g758
g14
(lp1248
F-0.38
aF2.0
aF7.6
aF39.6
atp1249
Rp1250
(dp1251
g11
I00
sg19
I01
sg20
I00
sbsg891
g0
(g758
g14
(lp1252
F0.912
aF0.916
aF0.92
aF0.922
atp1253
Rp1254
(dp1255
g11
I00
sg19
I01
sg20
I00
sbsg935
g0
(g758
g14
(lp1256
F0.23
atp1257
Rp1258
(dp1259
g11
I00
sg19
I01
sg20
I00
sbsg926
g0
(g33
g2
Ntp1260
Rp1261
(dp1262
g11
I00
sg19
I01
sg37
I00
sg20
I00
sbsg38
(lp1263
g865
ag869
ag873
ag877
ag931
ag886
ag891
ag935
ag926
ag881
ag932
ag933
ag934
asg931
g0
(g298
g2
Ntp1264
Rp1265
(dp1266
g11
I00
sg19
I01
sg37
F0.3305
sg20
I00
sbsg932
g0
(g298
g2
Ntp1267
Rp1268
(dp1269
g11
I00
sg19
I01
sg37
F3.163
sg20
I00
sbsg933
g0
(g103
g2
Ntp1270
Rp1271
(dp1272
g11
I00
sg19
I01
sg37
I125
sg20
I00
sbsg934
g0
(g758
g14
(lp1273
I0
atp1274
Rp1275
(dp1276
g11
I00
sg19
I01
sg20
I00
sbsbsg20
I00
sg970
g0
(g33
g2
Ntp1277
Rp1278
(dp1279
g11
I00
sg19
I01
sg37
I00
sg20
I00
sbsg971
g0
(g33
g2
Ntp1280
Rp1281
(dp1282
g11
I00
sg19
I01
sg37
I00
sg20
I00
sbsg972
g0
(g298
g2
Ntp1283
Rp1284
(dp1285
g11
I00
sg19
I01
sg37
F20.0
sg20
I00
sbsg973
g0
(cFWCore.ParameterSet.Types
VPSet
p1286
g14
(lp1287
g0
(g28
g2
Ntp1288
Rp1289
(dp1290
g11
I00
sg19
I01
sg20
I00
sS'crosstalk'
p1291
g0
(g298
g2
Ntp1292
Rp1293
(dp1294
g11
I00
sg19
I01
sg37
F0.0
sg20
I00
sbsS'nonlin1'
p1295
g0
(g298
g2
Ntp1296
Rp1297
(dp1298
g11
I00
sg19
I01
sg37
F1.0
sg20
I00
sbsS'nonlin3'
p1299
g0
(g298
g2
Ntp1300
Rp1301
(dp1302
g11
I00
sg19
I01
sg37
F0.0
sg20
I00
sbsS'nonlin2'
p1303
g0
(g298
g2
Ntp1304
Rp1305
(dp1306
g11
I00
sg19
I01
sg37
F0.0
sg20
I00
sbsg38
(lp1307
g1295
ag1299
ag1303
aS'pixels'
p1308
ag1291
asg1308
g0
(g103
g2
Ntp1309
Rp1310
(dp1311
g11
I00
sg19
I01
sg37
I36000
sg20
I00
sbsbag0
(g28
g2
Ntp1312
Rp1313
(dp1314
g11
I00
sg19
I01
sg20
I00
sg1291
g0
(g298
g2
Ntp1315
Rp1316
(dp1317
g11
I00
sg19
I01
sg37
F0.0
sg20
I00
sbsg1295
g0
(g298
g2
Ntp1318
Rp1319
(dp1320
g11
I00
sg19
I01
sg37
F1.0
sg20
I00
sbsg1299
g0
(g298
g2
Ntp1321
Rp1322
(dp1323
g11
I00
sg19
I01
sg37
F0.0
sg20
I00
sbsg1303
g0
(g298
g2
Ntp1324
Rp1325
(dp1326
g11
I00
sg19
I01
sg37
F0.0
sg20
I00
sbsg38
(lp1327
g1295
ag1299
ag1303
ag1308
ag1291
asg1308
g0
(g103
g2
Ntp1328
Rp1329
(dp1330
g11
I00
sg19
I01
sg37
I2500
sg20
I00
sbsbag0
(g28
g2
Ntp1331
Rp1332
(dp1333
g11
I00
sg19
I01
sg20
I00
sg1291
g0
(g298
g2
Ntp1334
Rp1335
(dp1336
g11
I00
sg19
I01
sg37
F0.17
sg20
I00
sbsg1295
g0
(g298
g2
Ntp1337
Rp1338
(dp1339
g11
I00
sg19
I01
sg37
F1.00985
sg20
I00
sbsg1299
g0
(g298
g2
Ntp1340
Rp1341
(dp1342
g11
I00
sg19
I01
sg37
F2.86282e-10
sg20
I00
sbsg1303
g0
(g298
g2
Ntp1343
Rp1344
(dp1345
g11
I00
sg19
I01
sg37
F7.84089e-06
sg20
I00
sbsg38
(lp1346
g1295
ag1299
ag1303
ag1308
ag1291
asg1308
g0
(g103
g2
Ntp1347
Rp1348
(dp1349
g11
I00
sg19
I01
sg37
I27370
sg20
I00
sbsbag0
(g28
g2
Ntp1350
Rp1351
(dp1352
g11
I00
sg19
I01
sg20
I00
sg1291
g0
(g298
g2
Ntp1353
Rp1354
(dp1355
g11
I00
sg19
I01
sg37
F0.196
sg20
I00
sbsg1295
g0
(g298
g2
Ntp1356
Rp1357
(dp1358
g11
I00
sg19
I01
sg37
F1.00546
sg20
I00
sbsg1299
g0
(g298
g2
Ntp1359
Rp1360
(dp1361
g11
I00
sg19
I01
sg37
F1.27011e-10
sg20
I00
sbsg1303
g0
(g298
g2
Ntp1362
Rp1363
(dp1364
g11
I00
sg19
I01
sg37
F6.40239e-06
sg20
I00
sbsg38
(lp1365
g1295
ag1299
ag1303
ag1308
ag1291
asg1308
g0
(g103
g2
Ntp1366
Rp1367
(dp1368
g11
I00
sg19
I01
sg37
I38018
sg20
I00
sbsbag0
(g28
g2
Ntp1369
Rp1370
(dp1371
g11
I00
sg19
I01
sg20
I00
sg1291
g0
(g298
g2
Ntp1372
Rp1373
(dp1374
g11
I00
sg19
I01
sg37
F0.17
sg20
I00
sbsg1295
g0
(g298
g2
Ntp1375
Rp1376
(dp1377
g11
I00
sg19
I01
sg37
F1.00985
sg20
I00
sbsg1299
g0
(g298
g2
Ntp1378
Rp1379
(dp1380
g11
I00
sg19
I01
sg37
F2.86282e-10
sg20
I00
sbsg1303
g0
(g298
g2
Ntp1381
Rp1382
(dp1383
g11
I00
sg19
I01
sg37
F7.84089e-06
sg20
I00
sbsg38
(lp1384
g1295
ag1299
ag1303
ag1308
ag1291
asg1308
g0
(g103
g2
Ntp1385
Rp1386
(dp1387
g11
I00
sg19
I01
sg37
I27370
sg20
I00
sbsbag0
(g28
g2
Ntp1388
Rp1389
(dp1390
g11
I00
sg19
I01
sg20
I00
sg1291
g0
(g298
g2
Ntp1391
Rp1392
(dp1393
g11
I00
sg19
I01
sg37
F0.196
sg20
I00
sbsg1295
g0
(g298
g2
Ntp1394
Rp1395
(dp1396
g11
I00
sg19
I01
sg37
F1.00546
sg20
I00
sbsg1299
g0
(g298
g2
Ntp1397
Rp1398
(dp1399
g11
I00
sg19
I01
sg37
F1.27011e-10
sg20
I00
sbsg1303
g0
(g298
g2
Ntp1400
Rp1401
(dp1402
g11
I00
sg19
I01
sg37
F6.40239e-06
sg20
I00
sbsg38
(lp1403
g1295
ag1299
ag1303
ag1308
ag1291
asg1308
g0
(g103
g2
Ntp1404
Rp1405
(dp1406
g11
I00
sg19
I01
sg37
I38018
sg20
I00
sbsbag0
(g28
g2
Ntp1407
Rp1408
(dp1409
g11
I00
sg19
I01
sg20
I00
sg1291
g0
(g298
g2
Ntp1410
Rp1411
(dp1412
g11
I00
sg19
I01
sg37
F0.0
sg20
I00
sbsg1295
g0
(g298
g2
Ntp1413
Rp1414
(dp1415
g11
I00
sg19
I01
sg37
F1.0
sg20
I00
sbsg1299
g0
(g298
g2
Ntp1416
Rp1417
(dp1418
g11
I00
sg19
I01
sg37
F0.0
sg20
I00
sbsg1303
g0
(g298
g2
Ntp1419
Rp1420
(dp1421
g11
I00
sg19
I01
sg37
F0.0
sg20
I00
sbsg38
(lp1422
g1295
ag1299
ag1303
ag1308
ag1291
asg1308
g0
(g103
g2
Ntp1423
Rp1424
(dp1425
g11
I00
sg19
I01
sg37
I0
sg20
I00
sbsbatp1426
Rp1427
(dp1428
g11
I00
sg19
I01
sg20
I00
sg21
I1
sbsg267
g838
sg974
g0
(g33
g2
Ntp1429
Rp1430
(dp1431
g11
I00
sg19
I01
sg37
I01
sg20
I00
sbsg975
g0
(g28
g2
Ntp1432
Rp1433
(dp1434
g11
I00
sg19
I01
sg865
g0
(g103
g2
Ntp1435
Rp1436
(dp1437
g11
I00
sg19
I01
sg37
I1
sg20
I00
sbsg20
I00
sg869
g0
(g298
g2
Ntp1438
Rp1439
(dp1440
g11
I00
sg19
I01
sg37
F3.33
sg20
I00
sbsg873
g0
(g103
g2
Ntp1441
Rp1442
(dp1443
g11
I00
sg19
I01
sg37
I301
sg20
I00
sbsg877
g0
(g103
g2
Ntp1444
Rp1445
(dp1446
g11
I00
sg19
I01
sg37
I-9999
sg20
I00
sbsg881
g0
(g758
g14
(lp1447
F0.0
atp1448
Rp1449
(dp1450
g11
I00
sg19
I01
sg20
I00
sbsg886
g0
(g758
g14
(lp1451
F0.0697
aF-0.7405
aF12.38
aF-671.9
atp1452
Rp1453
(dp1454
g11
I00
sg19
I01
sg20
I00
sbsg891
g0
(g758
g14
(lp1455
F0.297
aF0.298
aF0.298
aF0.313
atp1456
Rp1457
(dp1458
g11
I00
sg19
I01
sg20
I00
sbsg935
g0
(g758
g14
(lp1459
F0.14
aF0.135
atp1460
Rp1461
(dp1462
g11
I00
sg19
I01
sg20
I00
sbsg926
g0
(g33
g2
Ntp1463
Rp1464
(dp1465
g11
I00
sg19
I01
sg37
I00
sg20
I00
sbsg38
(lp1466
g865
ag869
ag873
ag877
ag931
ag886
ag891
ag935
ag926
ag881
ag932
ag933
ag934
asg931
g0
(g298
g2
Ntp1467
Rp1468
(dp1469
g11
I00
sg19
I01
sg37
F0.0
sg20
I00
sbsg932
g0
(g298
g2
Ntp1470
Rp1471
(dp1472
g11
I00
sg19
I01
sg37
F13.33
sg20
I00
sbsg933
g0
(g103
g2
Ntp1473
Rp1474
(dp1475
g11
I00
sg19
I01
sg37
I301
sg20
I00
sbsg934
g0
(g758
g14
(lp1476
F0.0
aF0.0
atp1477
Rp1478
(dp1479
g11
I00
sg19
I01
sg20
I00
sbsbsbsS'GlobalTag'
p1480
g0
(g839
g2
Ntp1481
Rp1482
(dp1483
g38
(lp1484
S'DBParameters'
p1485
aS'connect'
p1486
aS'globaltag'
p1487
aS'RefreshEachRun'
p1488
aS'pfnPrefix'
p1489
aS'snapshotTime'
p1490
ag954
aS'pfnPostfix'
p1491
aS'RefreshAlways'
p1492
aS'ReconnectEachRun'
p1493
aS'RefreshOpenIOVs'
p1494
aS'DumpStat'
p1495
asg11
I00
sg69
S'/cvmfs/cms.cern.ch/slc7_amd64_gcc700/cms/cmssw/CMSSW_10_4_0/python/CondCore/ESSources/CondDBESSource_cfi.py'
p1496
sg20
I01
sg1487
g0
(g164
g2
Ntp1497
Rp1498
(dp1499
g11
I00
sg19
I01
sg37
S'80X_mcRun2_asymptotic_2016_TrancheIV_v6'
p1500
sg20
I00
sbsg1488
g0
(g33
g2
Ntp1501
Rp1502
(dp1503
g11
I00
sg19
I00
sg37
I00
sg20
I00
sbsg1489
g0
(g164
g2
Ntp1504
Rp1505
(dp1506
g11
I00
sg19
I00
sg37
g316
sg20
I00
sbsg1490
g0
(g164
g2
Ntp1507
Rp1508
(dp1509
g11
I00
sg19
I01
sg37
g316
sg20
I00
sbsg954
g0
(g1286
g14
(lp1510
tp1511
Rp1512
(dp1513
g11
I00
sg19
I01
sg20
I00
sg21
I1
sbsg1491
g0
(g164
g2
Ntp1514
Rp1515
(dp1516
g11
I00
sg19
I00
sg37
g316
sg20
I00
sbsg1485
g0
(g28
g2
Ntp1517
Rp1518
(dp1519
g11
I00
sg19
I01
sS'authenticationPath'
p1520
g0
(g164
g2
Ntp1521
Rp1522
(dp1523
g11
I00
sg19
I00
sg37
g316
sg20
I00
sbsg20
I00
sS'messageLevel'
p1524
g0
(g103
g2
Ntp1525
Rp1526
(dp1527
g11
I00
sg19
I00
sg37
I0
sg20
I00
sbsg38
(lp1528
g1524
aS'security'
p1529
aS'authenticationSystem'
p1530
ag1520
asg1529
g0
(g164
g2
Ntp1531
Rp1532
(dp1533
g11
I00
sg19
I00
sg37
g316
sg20
I00
sbsg1530
g0
(g103
g2
Ntp1534
Rp1535
(dp1536
g11
I00
sg19
I00
sg37
I0
sg20
I00
sbsbsg1492
g0
(g33
g2
Ntp1537
Rp1538
(dp1539
g11
I00
sg19
I00
sg37
I00
sg20
I00
sbsg40
I19
sg1486
g0
(g164
g2
Ntp1540
Rp1541
(dp1542
g11
I00
sg19
I01
sg37
S'frontier://FrontierProd/CMS_CONDITIONS'
p1543
sg20
I00
sbsg1493
g0
(g33
g2
Ntp1544
Rp1545
(dp1546
g11
I00
sg19
I00
sg37
I00
sg20
I00
sbsg267
g1480
sg1494
g0
(g33
g2
Ntp1547
Rp1548
(dp1549
g11
I00
sg19
I00
sg37
I00
sg20
I00
sbsg1495
g0
(g33
g2
Ntp1550
Rp1551
(dp1552
g11
I00
sg19
I00
sg37
I00
sg20
I00
sbsg46
S'PoolDBESSource'
p1553
sbsS'HcalTimeSlewEP'
p1554
g0
(g839
g2
Ntp1555
Rp1556
(dp1557
g38
(lp1558
S'timeSlewParametersM3'
p1559
aS'timeSlewParametersM2'
p1560
aS'appendToDataLabel'
p1561
asg11
I00
sg1559
g0
(g1286
g14
(lp1562
g0
(g28
g2
Ntp1563
Rp1564
(dp1565
g11
I00
sg19
I01
sS'tspar2'
p1566
g0
(g298
g2
Ntp1567
Rp1568
(dp1569
g11
I00
sg19
I01
sg37
F0.0
sg20
I00
sbsg20
I00
sS'tspar0'
p1570
g0
(g298
g2
Ntp1571
Rp1572
(dp1573
g11
I00
sg19
I01
sg37
F12.2999
sg20
I00
sbsS'tspar1'
p1574
g0
(g298
g2
Ntp1575
Rp1576
(dp1577
g11
I00
sg19
I01
sg37
F-2.19142
sg20
I00
sbsS'tspar1_siPM'
p1578
g0
(g298
g2
Ntp1579
Rp1580
(dp1581
g11
I00
sg19
I01
sg37
F0.0
sg20
I00
sbsS'cap'
p1582
g0
(g298
g2
Ntp1583
Rp1584
(dp1585
g11
I00
sg19
I01
sg37
F6.0
sg20
I00
sbsS'tspar0_siPM'
p1586
g0
(g298
g2
Ntp1587
Rp1588
(dp1589
g11
I00
sg19
I01
sg37
F0.0
sg20
I00
sbsg38
(lp1590
g1566
ag1570
ag1574
ag1578
ag1582
ag1586
aS'tspar2_siPM'
p1591
asg1591
g0
(g298
g2
Ntp1592
Rp1593
(dp1594
g11
I00
sg19
I01
sg37
F0.0
sg20
I00
sbsbag0
(g28
g2
Ntp1595
Rp1596
(dp1597
g11
I00
sg19
I01
sg1566
g0
(g298
g2
Ntp1598
Rp1599
(dp1600
g11
I00
sg19
I01
sg37
F32.0
sg20
I00
sbsg20
I00
sg1570
g0
(g298
g2
Ntp1601
Rp1602
(dp1603
g11
I00
sg19
I01
sg37
F15.5
sg20
I00
sbsg1574
g0
(g298
g2
Ntp1604
Rp1605
(dp1606
g11
I00
sg19
I01
sg37
F-3.2
sg20
I00
sbsg1578
g0
(g298
g2
Ntp1607
Rp1608
(dp1609
g11
I00
sg19
I01
sg37
F0.0
sg20
I00
sbsg1582
g0
(g298
g2
Ntp1610
Rp1611
(dp1612
g11
I00
sg19
I01
sg37
F6.0
sg20
I00
sbsg1586
g0
(g298
g2
Ntp1613
Rp1614
(dp1615
g11
I00
sg19
I01
sg37
F0.0
sg20
I00
sbsg38
(lp1616
g1566
ag1570
ag1574
ag1578
ag1582
ag1586
ag1591
asg1591
g0
(g298
g2
Ntp1617
Rp1618
(dp1619
g11
I00
sg19
I01
sg37
F0.0
sg20
I00
sbsbag0
(g28
g2
Ntp1620
Rp1621
(dp1622
g11
I00
sg19
I01
sg1566
g0
(g298
g2
Ntp1623
Rp1624
(dp1625
g11
I00
sg19
I01
sg37
F0.0
sg20
I00
sbsg20
I00
sg1570
g0
(g298
g2
Ntp1626
Rp1627
(dp1628
g11
I00
sg19
I01
sg37
F12.2999
sg20
I00
sbsg1574
g0
(g298
g2
Ntp1629
Rp1630
(dp1631
g11
I00
sg19
I01
sg37
F-2.19142
sg20
I00
sbsg1578
g0
(g298
g2
Ntp1632
Rp1633
(dp1634
g11
I00
sg19
I01
sg37
F0.0
sg20
I00
sbsg1582
g0
(g298
g2
Ntp1635
Rp1636
(dp1637
g11
I00
sg19
I01
sg37
F6.0
sg20
I00
sbsg1586
g0
(g298
g2
Ntp1638
Rp1639
(dp1640
g11
I00
sg19
I01
sg37
F0.0
sg20
I00
sbsg38
(lp1641
g1566
ag1570
ag1574
ag1578
ag1582
ag1586
ag1591
asg1591
g0
(g298
g2
Ntp1642
Rp1643
(dp1644
g11
I00
sg19
I01
sg37
F0.0
sg20
I00
sbsbag0
(g28
g2
Ntp1645
Rp1646
(dp1647
g11
I00
sg19
I01
sg1566
g0
(g298
g2
Ntp1648
Rp1649
(dp1650
g11
I00
sg19
I01
sg37
F0.0
sg20
I00
sbsg20
I00
sg1570
g0
(g298
g2
Ntp1651
Rp1652
(dp1653
g11
I00
sg19
I01
sg37
F12.2999
sg20
I00
sbsg1574
g0
(g298
g2
Ntp1654
Rp1655
(dp1656
g11
I00
sg19
I01
sg37
F-2.19142
sg20
I00
sbsg1578
g0
(g298
g2
Ntp1657
Rp1658
(dp1659
g11
I00
sg19
I01
sg37
F0.0
sg20
I00
sbsg1582
g0
(g298
g2
Ntp1660
Rp1661
(dp1662
g11
I00
sg19
I01
sg37
F6.0
sg20
I00
sbsg1586
g0
(g298
g2
Ntp1663
Rp1664
(dp1665
g11
I00
sg19
I01
sg37
F0.0
sg20
I00
sbsg38
(lp1666
g1566
ag1570
ag1574
ag1578
ag1582
ag1586
ag1591
asg1591
g0
(g298
g2
Ntp1667
Rp1668
(dp1669
g11
I00
sg19
I01
sg37
F0.0
sg20
I00
sbsbatp1670
Rp1671
(dp1672
g11
I00
sg19
I01
sg20
I00
sg21
I1
sbsg1560
g0
(g1286
g14
(lp1673
g0
(g28
g2
Ntp1674
Rp1675
(dp1676
g11
I00
sg19
I01
sg20
I00
sS'slope'
p1677
g0
(g298
g2
Ntp1678
Rp1679
(dp1680
g11
I00
sg19
I01
sg37
F-3.178648
sg20
I00
sbsS'tmax'
p1681
g0
(g298
g2
Ntp1682
Rp1683
(dp1684
g11
I00
sg19
I01
sg37
F16.0
sg20
I00
sbsS'tzero'
p1685
g0
(g298
g2
Ntp1686
Rp1687
(dp1688
g11
I00
sg19
I01
sg37
F23.960177
sg20
I00
sbsg38
(lp1689
g1677
ag1681
ag1685
asbag0
(g28
g2
Ntp1690
Rp1691
(dp1692
g11
I00
sg19
I01
sg20
I00
sg1677
g0
(g298
g2
Ntp1693
Rp1694
(dp1695
g11
I00
sg19
I01
sg37
F-1.5610227
sg20
I00
sbsg1681
g0
(g298
g2
Ntp1696
Rp1697
(dp1698
g11
I00
sg19
I01
sg37
F10.0
sg20
I00
sbsg1685
g0
(g298
g2
Ntp1699
Rp1700
(dp1701
g11
I00
sg19
I01
sg37
F11.977461
sg20
I00
sbsg38
(lp1702
g1677
ag1681
ag1685
asbag0
(g28
g2
Ntp1703
Rp1704
(dp1705
g11
I00
sg19
I01
sg20
I00
sg1677
g0
(g298
g2
Ntp1706
Rp1707
(dp1708
g11
I00
sg19
I01
sg37
F-1.075824
sg20
I00
sbsg1681
g0
(g298
g2
Ntp1709
Rp1710
(dp1711
g11
I00
sg19
I01
sg37
F6.25
sg20
I00
sbsg1685
g0
(g298
g2
Ntp1712
Rp1713
(dp1714
g11
I00
sg19
I01
sg37
F9.109694
sg20
I00
sbsg38
(lp1715
g1677
ag1681
ag1685
asbatp1716
Rp1717
(dp1718
g11
I00
sg19
I01
sg20
I00
sg21
I1
sbsg20
I00
sg40
I23
sg69
S'/cvmfs/cms.cern.ch/slc7_amd64_gcc700/cms/cmssw/CMSSW_10_4_0/python/CalibCalorimetry/HcalPlugins/HcalTimeSlew_cff.py'
p1719
sg1561
g0
(g164
g2
Ntp1720
Rp1721
(dp1722
g11
I00
sg19
I01
sg37
S'HBHE'
p1723
sg20
I00
sbsg267
g1554
sg46
g1554
sbssg328
g284
sg631
g622
sg547
g405
sg803
g805
sg497
g622
sS'CastorDbProducer'
p1724
g0
(g633
g2
Ntp1725
Rp1726
(dp1727
g38
(lp1728
g1561
asg11
I00
sg1561
g0
(g164
g2
Ntp1729
Rp1730
(dp1731
g11
I00
sg19
I01
sg37
g316
sg20
I00
sbsg20
I00
sg40
I53
sg69
g70
sg267
g1724
sg46
g1724
sbsS'_Process__vpsets'
p1732
(dp1733
sS'_Process__name'
p1734
S'MiniTree'
p1735
sg1554
g1556
sS'es_prefer_hcalHardcode'
p1736
g0
(cFWCore.ParameterSet.Modules
ESPrefer
p1737
g2
Ntp1738
Rp1739
(dp1740
g38
(lp1741
sg11
I00
sg20
I00
sS'_targetLabel'
p1742
g838
sg40
I89
sg69
g70
sg267
g1736
sg46
g1057
sbsg539
g516
sS'_Process__subProcesses'
p1743
(lp1744
sS'_cloneToObjectDict'
p1745
(dp1746
I140570451326032
g0
(g633
g2
Ntp1747
Rp1748
(dp1749
g38
(lp1750
g1561
aS'PrintDebugOutput'
p1751
aS'ThresholdForReducedGranularity'
p1752
aS'UseEmptyRunInfo'
p1753
aS'ReduceGranularity'
p1754
aS'ListOfRecordToMerge'
p1755
asg11
I00
sg1561
g0
(g164
g2
Ntp1756
Rp1757
(dp1758
g11
I00
sg19
I01
sg37
g316
sg20
I00
sbsg20
I01
sg40
I53
sg69
g70
sg1752
g0
(g298
g2
Ntp1759
Rp1760
(dp1761
g11
I00
sg19
I01
sg37
F0.3
sg20
I00
sbsg267
S'siStripQualityESProducer'
p1762
sg1753
g0
(g33
g2
Ntp1763
Rp1764
(dp1765
g11
I00
sg19
I01
sg37
I00
sg20
I00
sbsg1754
g0
(g33
g2
Ntp1766
Rp1767
(dp1768
g11
I00
sg19
I01
sg37
I00
sg20
I00
sbsg1755
g0
(g1286
g14
(lp1769
g0
(g28
g2
Ntp1770
Rp1771
(dp1772
g11
I00
sg19
I01
sg20
I00
sg723
g0
(g164
g2
Ntp1773
Rp1774
(dp1775
g11
I00
sg19
I01
sg37
S'SiStripDetVOffRcd'
p1776
sg20
I00
sbsS'tag'
p1777
g0
(g164
g2
Ntp1778
Rp1779
(dp1780
g11
I00
sg19
I01
sg37
g316
sg20
I00
sbsg38
(lp1781
g723
ag1777
asbag0
(g28
g2
Ntp1782
Rp1783
(dp1784
g11
I00
sg19
I01
sg20
I00
sg723
g0
(g164
g2
Ntp1785
Rp1786
(dp1787
g11
I00
sg19
I01
sg37
S'SiStripDetCablingRcd'
p1788
sg20
I00
sbsg1777
g0
(g164
g2
Ntp1789
Rp1790
(dp1791
g11
I00
sg19
I01
sg37
g316
sg20
I00
sbsg38
(lp1792
g723
ag1777
asbag0
(g28
g2
Ntp1793
Rp1794
(dp1795
g11
I00
sg19
I01
sg20
I00
sg723
g0
(g164
g2
Ntp1796
Rp1797
(dp1798
g11
I00
sg19
I01
sg37
S'RunInfoRcd'
p1799
sg20
I00
sbsg1777
g0
(g164
g2
Ntp1800
Rp1801
(dp1802
g11
I00
sg19
I01
sg37
g316
sg20
I00
sbsg38
(lp1803
g723
ag1777
asbag0
(g28
g2
Ntp1804
Rp1805
(dp1806
g11
I00
sg19
I01
sg20
I00
sg723
g0
(g164
g2
Ntp1807
Rp1808
(dp1809
g11
I00
sg19
I01
sg37
S'SiStripBadChannelRcd'
p1810
sg20
I00
sbsg1777
g0
(g164
g2
Ntp1811
Rp1812
(dp1813
g11
I00
sg19
I01
sg37
g316
sg20
I00
sbsg38
(lp1814
g723
ag1777
asbag0
(g28
g2
Ntp1815
Rp1816
(dp1817
g11
I00
sg19
I01
sg20
I00
sg723
g0
(g164
g2
Ntp1818
Rp1819
(dp1820
g11
I00
sg19
I01
sg37
S'SiStripBadFiberRcd'
p1821
sg20
I00
sbsg1777
g0
(g164
g2
Ntp1822
Rp1823
(dp1824
g11
I00
sg19
I01
sg37
g316
sg20
I00
sbsg38
(lp1825
g723
ag1777
asbag0
(g28
g2
Ntp1826
Rp1827
(dp1828
g11
I00
sg19
I01
sg20
I00
sg723
g0
(g164
g2
Ntp1829
Rp1830
(dp1831
g11
I00
sg19
I01
sg37
S'SiStripBadModuleRcd'
p1832
sg20
I00
sbsg1777
g0
(g164
g2
Ntp1833
Rp1834
(dp1835
g11
I00
sg19
I01
sg37
g316
sg20
I00
sbsg38
(lp1836
g723
ag1777
asbag0
(g28
g2
Ntp1837
Rp1838
(dp1839
g11
I00
sg19
I01
sg20
I00
sg723
g0
(g164
g2
Ntp1840
Rp1841
(dp1842
g11
I00
sg19
I01
sg37
S'SiStripBadStripRcd'
p1843
sg20
I00
sbsg1777
g0
(g164
g2
Ntp1844
Rp1845
(dp1846
g11
I00
sg19
I01
sg37
g316
sg20
I00
sbsg38
(lp1847
g723
ag1777
asbatp1848
Rp1849
(dp1850
g11
I00
sg19
I01
sg20
I00
sg21
I1
sbsg46
S'SiStripQualityESProducer'
p1851
sg1751
g0
(g33
g2
Ntp1852
Rp1853
(dp1854
g11
I00
sg19
I01
sg37
I00
sg20
I00
sbsbsI140570451139728
g823
sI140570450638032
g273
sI140570451521424
g805
sI140570451277200
g710
sI140570451277520
g781
sI140570451130256
g284
sI140570451248208
g1739
sI140570451249360
g1726
sI140570451913040
g814
sI140570451138960
g1556
sI140570451327440
g255
sI140570451327504
g344
sI140570451130960
g0
(g282
g2
Ntp1855
Rp1856
(dp1857
g38
(lp1858
g287
ag288
ag292
ag289
ag293
ag290
ag294
ag295
ag296
ag297
asg11
I00
sg287
g0
(g298
g2
Ntp1859
Rp1860
(dp1861
g11
I00
sg19
I01
sg37
F1.0
sg20
I00
sbsg20
I00
sg69
S'/cvmfs/cms.cern.ch/slc7_amd64_gcc700/cms/cmssw/CMSSW_10_4_0/python/RecoMET/METFilters/BadChargedCandidateFilter_cfi.py'
p1862
sg289
g0
(g164
g2
Ntp1863
Rp1864
(dp1865
g11
I00
sg19
I01
sg37
g353
sg20
I00
sbsg288
g0
(g309
g2
Ntp1866
Rp1867
(dp1868
g11
I00
sg19
I01
sg20
I00
sg313
S'particleFlow'
p1869
sg315
g316
sg317
g316
sbsg290
g0
(g298
g2
Ntp1870
Rp1871
(dp1872
g11
I00
sg19
I01
sg37
F0.3
sg20
I00
sbsg40
I14
sg297
g0
(g298
g2
Ntp1873
Rp1874
(dp1875
g11
I00
sg19
I01
sg37
F1e-05
sg20
I00
sbsg292
g0
(g33
g2
Ntp1876
Rp1877
(dp1878
g11
I00
sg19
I01
sg37
I00
sg20
I00
sbsg267
Nsg293
g0
(g298
g2
Ntp1879
Rp1880
(dp1881
g11
I00
sg19
I01
sg37
F1e-05
sg20
I00
sbsg294
g0
(g298
g2
Ntp1882
Rp1883
(dp1884
g11
I00
sg19
I01
sg37
F2.0
sg20
I00
sbsg295
g0
(g298
g2
Ntp1885
Rp1886
(dp1887
g11
I00
sg19
I01
sg37
F100.0
sg20
I00
sbsg296
g0
(g309
g2
Ntp1888
Rp1889
(dp1890
g11
I00
sg19
I01
sg20
I00
sg313
g296
sg315
g316
sg317
g316
sbsg46
g342
sbsI140570451327632
g478
sI140570451214160
g841
sI140570451328144
g439
sI140570451139664
g755
sI140570451278992
g0
(g633
g2
Ntp1891
Rp1892
(dp1893
g38
(lp1894
S'PreFilter'
p1895
ag639
aS'NSigmaInside'
p1896
asg11
I00
sg20
I00
sg69
g70
sg639
g0
(g164
g2
Ntp1897
Rp1898
(dp1899
g11
I00
sg19
I01
sg37
S'StandardMatcher'
p1900
sg20
I00
sbsg1895
g0
(g33
g2
Ntp1901
Rp1902
(dp1903
g11
I00
sg19
I01
sg37
I00
sg20
I00
sbsg40
I53
sg1896
g0
(g298
g2
Ntp1904
Rp1905
(dp1906
g11
I00
sg19
I01
sg37
F3.0
sg20
I00
sbsg267
S'SiStripRecHitMatcherESProducer'
p1907
sg46
g1907
sbsI140570450638224
g391
sI140570451279120
g0
(g633
g2
Ntp1908
Rp1909
(dp1910
g38
(lp1911
sg11
I00
sg20
I00
sg40
I53
sg69
g70
sg267
S'sistripconn'
p1912
sg46
S'SiStripConnectivity'
p1913
sbsI140570451277648
g635
sI140570451131792
g0
(g282
g2
Ntp1914
Rp1915
(dp1916
g38
(lp1917
g287
ag288
ag289
ag293
ag291
ag292
ag290
ag294
ag295
ag296
ag297
asg11
I00
sg287
g0
(g298
g2
Ntp1918
Rp1919
(dp1920
g11
I00
sg19
I01
sg37
F1.0
sg20
I00
sbsg20
I00
sg69
S'/cvmfs/cms.cern.ch/slc7_amd64_gcc700/cms/cmssw/CMSSW_10_4_0/python/RecoMET/METFilters/BadPFMuonFilter_cfi.py'
p1921
sg289
g0
(g164
g2
Ntp1922
Rp1923
(dp1924
g11
I00
sg19
I01
sg37
g308
sg20
I00
sbsg288
g0
(g309
g2
Ntp1925
Rp1926
(dp1927
g11
I00
sg19
I01
sg20
I00
sg313
g1869
sg315
g316
sg317
g316
sbsg290
g0
(g298
g2
Ntp1928
Rp1929
(dp1930
g11
I00
sg19
I01
sg37
F0.3
sg20
I00
sbsg297
g0
(g298
g2
Ntp1931
Rp1932
(dp1933
g11
I00
sg19
I01
sg37
F0.0
sg20
I00
sbsg40
I15
sg291
g0
(g103
g2
Ntp1934
Rp1935
(dp1936
g11
I00
sg19
I01
sg37
I14
sg20
I00
sbsg292
g0
(g33
g2
Ntp1937
Rp1938
(dp1939
g11
I00
sg19
I01
sg37
I00
sg20
I00
sbsg267
Nsg293
g0
(g298
g2
Ntp1940
Rp1941
(dp1942
g11
I00
sg19
I01
sg37
F0.001
sg20
I00
sbsg294
g0
(g298
g2
Ntp1943
Rp1944
(dp1945
g11
I00
sg19
I01
sg37
F2.0
sg20
I00
sbsg295
g0
(g298
g2
Ntp1946
Rp1947
(dp1948
g11
I00
sg19
I01
sg37
I100
sg20
I00
sbsg296
g0
(g309
g2
Ntp1949
Rp1950
(dp1951
g11
I00
sg19
I01
sg20
I00
sg313
g296
sg315
g316
sg317
g316
sbsg46
g342
sbsI140570451362512
g417
sI140570451250960
g0
(g633
g2
Ntp1952
Rp1953
(dp1954
g38
(lp1955
S'printDebug'
p1956
ag1561
aS'APVGain'
p1957
aS'AutomaticNormalization'
p1958
asg11
I00
sg1561
g0
(g164
g2
Ntp1959
Rp1960
(dp1961
g11
I00
sg19
I01
sg37
g316
sg20
I00
sbsg20
I00
sg1958
g0
(g33
g2
Ntp1962
Rp1963
(dp1964
g11
I00
sg19
I01
sg37
I00
sg20
I00
sbsg40
I53
sg1956
g0
(g33
g2
Ntp1965
Rp1966
(dp1967
g11
I00
sg19
I00
sg37
I00
sg20
I00
sbsg69
g70
sg1957
g0
(g1286
g14
(lp1968
g0
(g28
g2
Ntp1969
Rp1970
(dp1971
g11
I00
sg19
I01
sg20
I00
sS'Label'
p1972
g0
(g164
g2
Ntp1973
Rp1974
(dp1975
g11
I00
sg19
I00
sg37
g316
sg20
I00
sbsS'Record'
p1976
g0
(g164
g2
Ntp1977
Rp1978
(dp1979
g11
I00
sg19
I01
sg37
S'SiStripApvGainRcd'
p1980
sg20
I00
sbsS'NormalizationFactor'
p1981
g0
(g298
g2
Ntp1982
Rp1983
(dp1984
g11
I00
sg19
I00
sg37
F1.0
sg20
I00
sbsg38
(lp1985
g1976
ag1981
ag1972
asbag0
(g28
g2
Ntp1986
Rp1987
(dp1988
g11
I00
sg19
I01
sg20
I00
sg1972
g0
(g164
g2
Ntp1989
Rp1990
(dp1991
g11
I00
sg19
I00
sg37
g316
sg20
I00
sbsg1976
g0
(g164
g2
Ntp1992
Rp1993
(dp1994
g11
I00
sg19
I01
sg37
S'SiStripApvGain2Rcd'
p1995
sg20
I00
sbsg1981
g0
(g298
g2
Ntp1996
Rp1997
(dp1998
g11
I00
sg19
I00
sg37
F1.0
sg20
I00
sbsg38
(lp1999
g1976
ag1981
ag1972
asbatp2000
Rp2001
(dp2002
g11
I00
sg19
I01
sg20
I00
sg21
I1
sbsg267
S'siStripGainESProducer'
p2003
sg46
S'SiStripGainESProducer'
p2004
sbsI140570451328848
g516
sI140570451325904
g0
(g633
g2
Ntp2005
Rp2006
(dp2007
g38
(lp2008
g1755
asg11
I00
sg20
I01
sg40
I53
sg69
g70
sg1755
g0
(g1286
g14
(lp2009
g0
(g28
g2
Ntp2010
Rp2011
(dp2012
g11
I00
sg19
I01
sg20
I00
sg723
g0
(g164
g2
Ntp2013
Rp2014
(dp2015
g11
I00
sg19
I01
sg37
S'SiPixelQualityFromDbRcd'
p2016
sg20
I00
sbsg1777
g0
(g164
g2
Ntp2017
Rp2018
(dp2019
g11
I00
sg19
I01
sg37
g316
sg20
I00
sbsg38
(lp2020
g723
ag1777
asbag0
(g28
g2
Ntp2021
Rp2022
(dp2023
g11
I00
sg19
I01
sg20
I00
sg723
g0
(g164
g2
Ntp2024
Rp2025
(dp2026
g11
I00
sg19
I01
sg37
S'SiPixelDetVOffRcd'
p2027
sg20
I00
sbsg1777
g0
(g164
g2
Ntp2028
Rp2029
(dp2030
g11
I00
sg19
I01
sg37
g316
sg20
I00
sbsg38
(lp2031
g723
ag1777
asbatp2032
Rp2033
(dp2034
g11
I00
sg19
I01
sg20
I00
sg21
I1
sbsg267
S'siPixelQualityESProducer'
p2035
sg46
S'SiPixelQualityESProducer'
p2036
sbsI140570451132368
g405
sI140570451328400
g584
sI140570451362192
g549
sI140570461037008
g1482
sI140570451603984
g798
sI140570451276496
g0
(g633
g2
Ntp2037
Rp2038
(dp2039
g38
(lp2040
g713
aS'LorentzAngleDeconvMode'
p2041
aS'LorentzAnglePeakMode'
p2042
asg11
I00
sg20
I00
sg40
I53
sg69
g70
sg713
g0
(g28
g2
Ntp2043
Rp2044
(dp2045
g11
I00
sg19
I01
sg20
I00
sg719
g0
(g164
g2
Ntp2046
Rp2047
(dp2048
g11
I00
sg19
I00
sg37
g316
sg20
I00
sbsg723
g0
(g164
g2
Ntp2049
Rp2050
(dp2051
g11
I00
sg19
I01
sg37
g727
sg20
I00
sbsg38
(lp2052
g723
ag719
asbsg267
S'siStripLorentzAngleDepESProducer'
p2053
sg2042
g0
(g28
g2
Ntp2054
Rp2055
(dp2056
g11
I00
sg19
I01
sg20
I00
sg719
g0
(g164
g2
Ntp2057
Rp2058
(dp2059
g11
I00
sg19
I00
sg37
g735
sg20
I00
sbsg723
g0
(g164
g2
Ntp2060
Rp2061
(dp2062
g11
I00
sg19
I01
sg37
S'SiStripLorentzAngleRcd'
p2063
sg20
I00
sbsg38
(lp2064
g723
ag719
asbsg46
S'SiStripLorentzAngleDepESProducer'
p2065
sg2041
g0
(g28
g2
Ntp2066
Rp2067
(dp2068
g11
I00
sg19
I01
sg20
I00
sg719
g0
(g164
g2
Ntp2069
Rp2070
(dp2071
g11
I00
sg19
I00
sg37
g747
sg20
I00
sbsg723
g0
(g164
g2
Ntp2072
Rp2073
(dp2074
g11
I00
sg19
I01
sg37
g2063
sg20
I00
sbsg38
(lp2075
g723
ag719
asbsbsI140570451362576
g398
ssS'schedule'
p2076
g0
(cFWCore.ParameterSet.SequenceTypes
Schedule
p2077
g14
(lp2078
g391
atp2079
Rp2080
(dp2081
g11
I00
sg19
I01
sg20
I00
sg379
g0
(g380
g2
Ntp2082
Rp2083
(dp2084
g384
(dp2085
sg386
(lp2086
Nag2086
ag2086
asbsbsg2003
g1953
sg575
g549
sg593
g584
sg466
g439
sg1912
g1909
sS'_Process__esprefers'
p2087
(dp2088
g1736
g1739
ssg1907
g1892
sS'_Process__schedule'
p2089
g2080
sg1762
g1748
sS'_Process__outputmodules'
p2090
(dp2091
sS'_Process__analyzers'
p2092
(dp2093
g547
g405
ssS'_Process__InExtendCall'
p2094
I00
sg366
g344
sg2053
g2038
sS'_Process__modifiers'
p2095
(tsS'_Process__producers'
p2096
(dp2097
sg2035
g2006
sg1480
g1482
sS'_Process__filters'
p2098
(dp2099
g328
g284
sg366
g344
sg401
g398
ssg838
g841
sS'_Process__looper'
p2100
NsS'_Process__endpaths'
p2101
g0
(cFWCore.ParameterSet.DictTypes
SortedKeysDict
p2102
c__builtin__
dict
p2103
(dp2104
tp2105
Rp2106
(dp2107
S'list'
p2108
(lp2109
sbsS'_Process__esproducers'
p2110
(dp2111
g2053
g2038
sg779
g781
sg1907
g1892
sg2035
g2006
sg821
g823
sg2003
g1953
sg1912
g1909
sg632
g635
sg1724
g1726
sg796
g798
sg708
g710
sg1762
g1748
ssS'_Process__tasks'
p2112
(dp2113
sg401
g398
sS'_Process__paths'
p2114
g0
(g2102
g2103
(dp2115
g388
g391
stp2116
Rp2117
(dp2118
g2108
(lp2119
g388
asbsg514
g478
sg437
g417
sS'_Process__partialschedules'
p2120
(dp2121
sg812
g814
sS'_Process__isStrict'
p2122
I00
sb.